ccollections
defaultdict
p0
(c__builtin__
float
p1
tp2
Rp3
(L7977958917915904955123350L
I4
tp4
F5.314410000000002
s(L6047456755227187587057664L
I5
tp5
F1.2157665459056939
s(L12545658693018739842221416L
I4
tp6
F2.824295364810002
s(L12564550474926329549899114L
I1
tp7
F8.100000000000001
s(L30225506961978295017014848L
I1
tp8
F4.304672100000002
s(L19342813113974821471912960L
I1
tp9
F2.2876792454961015
s(L4837179018142771064604160L
I3
tp10
F6.561000000000002
s(L12090438787930853579161600L
I3
tp11
F1.5009463529699922
s(L9673768141078247452771840L
I2
tp12
F10.0
s(L19343994282073907523486976L
I4
tp13
F6.561000000000002
s(L11363962771698995742180928L
I1
tp14
F5.314410000000002
s(L7255916767549950011637760L
I3
tp15
F2.2876792454961015
s(L26107972774157409908426752L
I0
tp16
F5.314410000000002
s(L24178517113033478539052032L
I4
tp17
F2.2876792454961015
s(L4837326592105267080070720L
I0
tp18
F0.0
s(L7256507063364706763800576L
I3
tp19
F2.824295364810002
s(I360428707677995008
I4
tp20
F1.8530201888518425
s(L1180879851093571403776L
I4
tp21
F2.9337874344187695
s(L24180435260548354976320000L
I3
tp22
F8.100000000000001
s(L7935937450993583988409600L
I0
tp23
F5.314410000000002
s(L29016876434331239531940352L
I4
tp24
F0.0
s(L6500805091630087704939136L
I2
tp25
F2.824295364810002
s(L7861043770281423950316544L
I4
tp26
F6.561000000000002
s(L19344363402680446502963584L
I0
tp27
F2.824295364810002
s(L2656619482560623282176L
I5
tp28
F6.561000000000002
s(L4838507760194416197764416L
I0
tp29
F8.100000000000001
s(L31736074030758225529275904L
I2
tp30
F0.0
s(L6651749077782987271046560L
I1
tp31
F0.0
s(L27353718222844218442155412L
I3
tp32
F5.314410000000002
s(L7255031116651245498007552L
I3
tp33
F10.0
s(L25843446374068420246767616L
I1
tp34
F0.0
s(L10880332376707601618961664L
I6
tp35
F2.824295364810002
s(L9671406556917033401844736L
I1
tp36
F1.0757928202124198
s(L24179697560514807881271808L
I4
tp37
F0.797664430768726
s(L1586420148668695840768L
I3
tp38
F1.5009463529699922
s(L4838728544486645867480320L
I6
tp39
F6.561000000000002
s(L7861043770283897851479040L
I3
tp40
F8.100000000000001
s(L3044170608842543309824L
I5
tp41
F5.314410000000002
s(L1180591620717415499776L
I1
tp42
F4.6773155536618445
s(L6346861129437555479019520L
I6
tp43
F6.561000000000002
s(L19342813402205180441659792L
I3
tp44
F3.4867844010000018
s(L1180879991848239628288L
I2
tp45
F3.4867844010000018
s(L6044629530524263217367040L
I6
tp46
F1.2157665459056939
s(L29015400910995751425802240L
I3
tp47
F2.824295364810002
s(L6046990929944554959538534L
I1
tp48
F10.0
s(L19345174729421100210454528L
I4
tp49
F1.5009463529699922
s(L9672587891798832278668288L
I4
tp50
F4.304672100000002
s(L30830265163847763843614080L
I4
tp51
F0.0
s(L24180167952462308859447808L
I5
tp52
F1.8530201888518425
s(L24180435260548354976320096L
I0
tp53
F10.0
s(L10882103264103501957170176L
I6
tp54
F2.824295364810002
s(L26898600063027027587893600L
I0
tp55
F0.9847709021836121
s(L4838064822163882232055808L
I1
tp56
F0.797664430768726
s(L30224916377894679208790632L
I0
tp57
F0.0
s(L30526557825261252080830720L
I3
tp58
F10.0
s(L4838434045194356907838057L
I5
tp59
F8.100000000000001
s(L7751765050173411140306944L
I1
tp60
F8.100000000000001
s(L27202602495293021431956880L
I1
tp61
F2.2876792454961015
s(L9671407025449741503692800L
I2
tp62
F2.2876792454961015
s(L11487820552455052230393856L
I5
tp63
F5.314410000000002
s(L7255916100999595794890752L
I3
tp64
F2.2876792454961015
s(L7935936874532831148113920L
I6
tp65
F3.4867844010000018
s(L11665832375957058902820442L
I1
tp66
F6.561000000000002
s(L29015769197253319186450432L
I2
tp67
F0.6461081889226681
s(L26597918253998790273926758L
I1
tp68
F0.0
s(L27202307257403809386726976L
I6
tp69
F2.2876792454961015
s(L1180591779064273960960L
I3
tp70
F0.9847709021836121
s(L9673768316713795714352704L
I0
tp71
F4.304672100000002
s(L1180591620717411303424L
I5
tp72
F19.56740550967433
s(L30906191984888510014294612L
I1
tp73
F0.0
s(L12695307886396447163746708L
I0
tp74
F8.100000000000001
s(L7708526107146499231385152L
I0
tp75
F5.314410000000002
s(L9671406917275415281140736L
I4
tp76
F2.2876792454961015
s(L7558913474200428497946976L
I1
tp77
F4.304672100000002
s(L4838766131621481198230080L
I0
tp78
F5.314410000000002
s(L11184925303003928675845696L
I6
tp79
F6.561000000000002
s(L7652595263933392036563364L
I0
tp80
F4.304672100000002
s(I288371113644261376
I1
tp81
F5.115854730928115
s(L19345174981728198099730432L
I4
tp82
F3.4867844010000018
s(L26107991220901483617978880L
I0
tp83
F6.561000000000002
s(L11675626853957451537319168L
I2
tp84
F10.0
s(L19345174297145909025178624L
I1
tp85
F0.9847709021836121
s(L25689674387386810352272384L
I4
tp86
F0.0
s(L4838064750106266720011776L
I2
tp87
F0.0
s(L7652595263968576408979878L
I1
tp88
F6.561000000000002
s(L6500633260234353450944512L
I5
tp89
F8.100000000000001
s(L12091102870624048635708928L
I3
tp90
F4.304672100000002
s(L9674137323628696157817088L
I5
tp91
F5.314410000000002
s(L4838359609745902727593984L
I5
tp92
F2.824295364810002
s(L4838655045811072311230464L
I3
tp93
F0.797664430768726
s(L6651052722141406188012544L
I2
tp94
F10.0
s(L10883284540222997096564992L
I0
tp95
F8.100000000000001
s(L30827608857686721410106976L
I1
tp96
F1.8530201888518425
s(L9672587148700495718121472L
I3
tp97
F1.2157665459056939
s(L1181042051083260657664L
I4
tp98
F5.314410000000002
s(L19342813113834101164475392L
I2
tp99
F0.9847709021836121
s(L7860379659437413777017238L
I1
tp100
F6.561000000000002
s(L7959549355507734512404480L
I2
tp101
F8.100000000000001
s(L6768805136618629234268518L
I2
tp102
F0.0
s(L31434432853509802214557696L
I6
tp103
F6.561000000000002
s(L2804265527937299645440L
I4
tp104
F0.6461081889226681
s(L31008645490917026141963866L
I1
tp105
F0.0
s(L9672882584673344978159872L
I0
tp106
F0.0
s(L19343994281915570873958400L
I2
tp107
F1.5009463529699922
s(I648676693200865792
I3
tp108
F5.314410000000002
s(L29016581214386092685393920L
I2
tp109
F1.8530201888518425
s(L6046105288134927243544576L
I5
tp110
F6.561000000000002
s(L6424779996331288276503040L
I6
tp111
F10.0
s(L7977958557627934629168790L
I3
tp112
F3.4867844010000018
s(L19345174585411430895321088L
I3
tp113
F1.8530201888518425
s(L4838360186206637854295296L
I0
tp114
F5.314410000000002
s(L31434801860448866153006080L
I6
tp115
F2.2876792454961015
s(L9671406953414154878190592L
I0
tp116
F4.304672100000002
s(L26898600062886251444832256L
I0
tp117
F0.5233476330273611
s(L4838756574989938226891368L
I6
tp118
F8.100000000000001
s(L6499630260722818881686080L
I2
tp119
F0.0
s(L19342813113834101160282112L
I2
tp120
F3.4867844010000018
s(L25692625596363398081153632L
I5
tp121
F0.0
s(L7256606242768184816960512L
I0
tp122
F5.314410000000002
s(L9673325468757460099793920L
I2
tp123
F3.4867844010000018
s(L30706776029648526095222368L
I0
tp124
F0.0
s(L24179992852493417915483776L
I3
tp125
F0.0
s(L30928401409974329065604608L
I5
tp126
F2.2876792454961015
s(I21474838528
I2
tp127
F3.4867844010000018
s(L19345174297075535987344384L
I5
tp128
F1.2157665459056939
s(L19345645162096203025876576L
I5
tp129
F5.314410000000002
s(L7936527818890124038505728L
I1
tp130
F10.0
s(L4838654757580713335194624L
I1
tp131
F3.4867844010000018
s(I576460769488537600
I2
tp132
F3.4867844010000018
s(L4835703278616885027931648L
I2
tp133
F0.42391158275216256
s(L24180877575534035503417600L
I1
tp134
F1.8530201888518425
s(I4194304
I1
tp135
F19.556903741777933
s(L19344695114075190477718912L
I5
tp136
F2.824295364810002
s(L12089258484464646017253376L
I4
tp137
F5.314410000000002
s(L19345645162096203025876582L
I0
tp138
F6.561000000000002
s(L19343994426101093339496448L
I4
tp139
F0.797664430768726
s(L12092090149734366164945536L
I4
tp140
F8.100000000000001
s(L29015400910890198309537280L
I6
tp141
F1.5009463529699922
s(L25388918528061015431054848L
I4
tp142
F0.0
s(L6424060897615601597415424L
I6
tp143
F10.0
s(L12091029461879763415074304L
I2
tp144
F6.561000000000002
s(L2361183311830410332416L
I0
tp145
F1.5009463529699922
s(L25390203026749922347059712L
I5
tp146
F4.304672100000002
s(L6047728151183116559451136L
I1
tp147
F5.314410000000002
s(L24180878026034759350617088L
I1
tp148
F4.304672100000002
s(L7676576107834362813221248L
I1
tp149
F0.0
s(L31433695298998823453459968L
I4
tp150
F2.824295364810002
s(L11279962928473879309026880L
I6
tp151
F10.0
s(L7255916677570306128218512L
I0
tp152
F3.4867844010000018
s(L29016581430616015045133824L
I5
tp153
F10.0
s(L9672587148678514076812288L
I5
tp154
F2.2876792454961015
s(L19345635898190051537847808L
I3
tp155
F2.2876792454961015
s(L19344584289495544843208704L
I2
tp156
F2.2876792454961015
s(L19345174945593865147515904L
I5
tp157
F1.8530201888518425
s(L30827608857686865291601504L
I1
tp158
F3.4867844010000018
s(L27353718222843806125294996L
I3
tp159
F4.304672100000002
s(L6045810338212252585295872L
I5
tp160
F0.0
s(L24180878026034759344325632L
I2
tp161
F3.4867844010000018
s(L27203653653530795485170304L
I1
tp162
F0.0
s(I140754672418816
I2
tp163
F1.5009463529699922
s(L11487857920520469705459280L
I2
tp164
F10.0
s(L10881808692659049132457984L
I5
tp165
F0.6461081889226681
s(L29015769197253319287245056L
I1
tp166
F0.9847709021836121
s(L24179992852464817304872960L
I0
tp167
F4.304672100000002
s(L1476316145013101691904L
I3
tp168
F0.0
s(L26098630344919022817351334L
I2
tp169
F0.0
s(L7709263715798512434153472L
I3
tp170
F4.304672100000002
s(L2951479051815003096640L
I0
tp171
F2.824295364810002
s(L7256377629819044282501632L
I5
tp172
F5.314410000000002
s(L29016580854062903759733760L
I5
tp173
F1.5009463529699922
s(L10883155418551610949764608L
I4
tp174
F8.100000000000001
s(L25991905860470371103278336L
I6
tp175
F4.304672100000002
s(L12391489651049988778624000L
I1
tp176
F1.8530201888518425
s(L10880332664937977770673536L
I4
tp177
F3.4867844010000018
s(L1180969923086120913256L
I4
tp178
F5.314410000000002
s(L10882693848101374373399104L
I2
tp179
F2.2876792454961015
s(L25993778204933935147254784L
I3
tp180
F6.561000000000002
s(L7254735797609276010138112L
I4
tp181
F10.0
s(L1476027897027584068096L
I2
tp182
F1.8530201888518425
s(L19344584407715036136016384L
I0
tp183
F5.314410000000002
s(L9673177444348126703911936L
I1
tp184
F2.824295364810002
s(L7255916579436687468611584L
I1
tp185
F10.0
s(L8010610043284258328823400L
I1
tp186
F0.0
s(L9674063464618975067211328L
I5
tp187
F5.314410000000002
s(L4838064939169472957122144L
I3
tp188
F5.314410000000002
s(L12564550474965911968499050L
I3
tp189
F10.0
s(L12694902093891130686965392L
I0
tp190
F2.824295364810002
s(L19342813113834092565102592L
I2
tp191
F0.42391158275216256
s(L4838064912200677523196313L
I4
tp192
F0.0
s(L26597549055664062533731648L
I1
tp193
F0.0
s(L31434820325312891488306816L
I3
tp194
F4.304672100000002
s(L4837621739842203977516032L
I0
tp195
F2.824295364810002
s(L7255203199193008677668512L
I1
tp196
F0.0
s(L1180591726270534125568L
I5
tp197
F3.4867844010000018
s(L6650965100107067606762752L
I1
tp198
F0.0
s(L25692522128448930546542848L
I4
tp199
F0.0
s(L29016581142222949827217408L
I5
tp200
F5.314410000000002
s(L30829379864232015328613737L
I3
tp201
F0.0
s(L10882988707678293927659008L
I2
tp202
F2.824295364810002
s(L7255916551289189797199872L
I1
tp203
F2.824295364810002
s(I288388705826111488
I3
tp204
F1.8530201888518425
s(L19345174297181094462619648L
I3
tp205
F3.4867844010000018
s(L24180877575534018316730368L
I5
tp206
F7.526846311715698
s(L19343993705595521703347200L
I3
tp207
F5.314410000000002
s(L10881808836774271569101824L
I1
tp208
F0.9847709021836121
s(L29015817908186888926550272L
I5
tp209
F1.8530201888518425
s(L19342813402064477306748928L
I2
tp210
F0.9847709021836121
s(L11486688743852994882438544L
I4
tp211
F3.4867844010000018
s(L11486667991150463232772672L
I1
tp212
F3.4867844010000018
s(L10883155417425708895438336L
I5
tp213
F6.561000000000002
s(L24178516968753370157286976L
I2
tp214
F1.8530201888518425
s(L24181173300040704645400576L
I3
tp215
F1.2157665459056939
s(L27079525728941558659549528L
I1
tp216
F8.100000000000001
s(I450430331489618176
I4
tp217
F0.797664430768726
s(L30903166264039712946651136L
I3
tp218
F0.6461081889226681
s(L26901662339592860341699840L
I3
tp219
F10.0
s(L10882103264033107441878400L
I6
tp220
F0.797664430768726
s(L24181320758025631197825280L
I2
tp221
F6.561000000000002
s(L2656781620960487802112L
I5
tp222
F0.0
s(L7936527746821534880105728L
I3
tp223
F6.561000000000002
s(L7253554917687792228106240L
I2
tp224
F1.8530201888518425
s(L10882250838091277079414016L
I0
tp225
F4.304672100000002
s(L4838360071901414402098432L
I1
tp226
F8.100000000000001
s(L7652595263933392036563328L
I6
tp227
F3.4867844010000018
s(L6519995153720567467083430L
I4
tp228
F10.0
s(L7253555368188502121383936L
I1
tp229
F2.824295364810002
s(L27354603360384937188656128L
I6
tp230
F0.0
s(I288230393331582976
I4
tp231
F4.304672100000002
s(L3025723301818880336896L
I3
tp232
F4.304672100000002
s(L7253554917780176974644832L
I3
tp233
F5.314410000000002
s(L11487821002824929224165972L
I5
tp234
F5.314410000000002
s(L26900961102118051303654912L
I0
tp235
F8.100000000000001
s(L12800417434126657477256848L
I4
tp236
F2.824295364810002
s(L9672587581024069715641600L
I1
tp237
F5.314410000000002
s(L6047747053927922538645904L
I5
tp238
F4.304672100000002
s(L4837622146714288181021248L
I0
tp239
F0.0
s(L7556967657836901555241984L
I6
tp240
F2.824295364810002
s(L30830671208300012980142080L
I2
tp241
F0.0
s(L6348705515684953388485216L
I3
tp242
F10.0
s(L4838832595744771999270564L
I0
tp243
F2.824295364810002
s(L12562971160490274084357760L
I6
tp244
F5.314410000000002
s(L3044073159105492028000L
I4
tp245
F4.304672100000002
s(L7255197038339071137548944L
I2
tp246
F6.561000000000002
s(L7254736157826879209866240L
I4
tp247
F1.5009463529699922
s(L32190399088637644208604736L
I6
tp248
F10.0
s(L10882693559773114580339200L
I1
tp249
F8.100000000000001
s(L7960213438294388056262656L
I5
tp250
F10.0
s(L24178516392292617853861888L
I2
tp251
F5.314410000000002
s(L24181468561591414441639936L
I5
tp252
F1.5009463529699922
s(L11260926176791587014575360L
I3
tp253
F8.100000000000001
s(L6044629386303522033633280L
I6
tp254
F2.824295364810002
s(L4838065038231072578470912L
I3
tp255
F1.5009463529699922
s(L6727011415135822750418944L
I4
tp256
F4.304672100000002
s(L26597918134670624694471274L
I6
tp257
F2.824295364810002
s(L4838729120947398170903872L
I0
tp258
F8.100000000000001
s(L10883284143884226770503936L
I1
tp259
F10.0
s(L7555786372758584957077504L
I2
tp260
F2.2876792454961015
s(L7652595263933392036825510L
I1
tp261
F5.314410000000002
s(L9671406556917033401844736L
I0
tp262
F1.2157665459056939
s(L9671406845217778302976000L
I1
tp263
F1.5009463529699922
s(L24181173300040710553732096L
I2
tp264
F0.797664430768726
s(L6425517469812697840748032L
I6
tp265
F10.0
s(L25390541661343833287821312L
I4
tp266
F6.561000000000002
s(L19342813690294836282787840L
I0
tp267
F0.9847709021836121
s(L1476171985810207541632L
I5
tp268
F6.561000000000002
s(L19342813113834066799495168L
I0
tp269
F4.6773155536618445
s(L26183844184347579722910208L
I6
tp270
F5.314410000000002
s(L12800435922531647670036121L
I4
tp271
F8.100000000000001
s(L29015400723034848545211904L
I0
tp272
F3.4867844010000018
s(L6724650520195089876649984L
I4
tp273
F2.824295364810002
s(L7256506856177116501771264L
I3
tp274
F4.304672100000002
s(L7652595263978472013629862L
I3
tp275
F8.100000000000001
s(L19343994281915536510025728L
I4
tp276
F5.569266961962309
s(L6500633260251945637513216L
I3
tp277
F10.0
s(L30526557825120514592475136L
I0
tp278
F8.100000000000001
s(L6046104837766196332332544L
I6
tp279
F8.100000000000001
s(L24178516680663731493928960L
I3
tp280
F6.561000000000002
s(L1180879851093573503296L
I0
tp281
F3.4867844010000018
s(L29014219670751117372817408L
I6
tp282
F0.6491955782015546
s(L2361831830188567035904L
I4
tp283
F2.824295364810002
s(L9671406845235404849284096L
I0
tp284
F2.2876792454961015
s(L7256506847099548502852608L
I0
tp285
F3.4867844010000018
s(L19345174873536271106443264L
I5
tp286
F1.2157665459056939
s(L4836884302600737388496128L
I0
tp287
F6.561000000000002
s(L30641739295257485929678432L
I2
tp288
F10.0
s(L9671407133472360891745792L
I1
tp289
F3.4867844010000018
s(L2361183311829344978176L
I0
tp290
F0.5233476330273611
s(L9671406557022586518111232L
I1
tp291
F0.5233476330273611
s(L25994857291312425366587392L
I6
tp292
F2.824295364810002
s(L11336410433614818171159808L
I2
tp293
F6.561000000000002
s(L1475739684271539880960L
I3
tp294
F0.9847709021836121
s(L12090439476932118540716032L
I4
tp295
F8.100000000000001
s(L24181468330824142748124568L
I4
tp296
F8.100000000000001
s(L6046990569544991211784192L
I1
tp297
F2.824295364810002
s(L4838766014435545590007120L
I0
tp298
F10.0
s(L6724650344594321189112064L
I6
tp299
F2.824295364810002
s(L24181468447915114848322816L
I5
tp300
F5.314410000000002
s(L26900370373951156887227008L
I3
tp301
F10.0
s(L26599024939129235172821248L
I4
tp302
F3.4867844010000018
s(L25692434522187625555036672L
I3
tp303
F8.100000000000001
s(L12090734368158507417879808L
I5
tp304
F6.561000000000002
s(L29014219958981476344661504L
I6
tp305
F1.8530201888518425
s(L19345174729533256843134352L
I4
tp306
F2.824295364810002
s(L6724650448137495838197760L
I6
tp307
F2.2876792454961015
s(L12790972629098908922480128L
I6
tp308
F1.2157665459056939
s(L9673344209432860231730176L
I5
tp309
F10.0
s(L12091102870624048636233280L
I0
tp310
F5.314410000000002
s(I140737488356608
I0
tp311
F1.8530201888518425
s(L7255031350936628824639072L
I3
tp312
F5.314410000000002
s(L9674137143528692868186112L
I1
tp313
F0.0
s(L27023323219525769511733606L
I1
tp314
F10.0
s(L19343993705525178720586240L
I0
tp315
F0.6461081889226681
s(L26598138919045300570294912L
I0
tp316
F8.100000000000001
s(L2951767352555604017152L
I4
tp317
F1.5009463529699922
s(L9674063176381984660785664L
I5
tp318
F8.100000000000001
s(L3025721032426880607232L
I5
tp319
F3.4867844010000018
s(L19344584289636282322124800L
I5
tp320
F4.304672100000002
s(L11354518038733256451688000L
I3
tp321
F4.304672100000002
s(L7255197056371061833075354L
I4
tp322
F10.0
s(L24178516392433320986675200L
I0
tp323
F0.5233476330273611
s(L6422418849153875647135744L
I6
tp324
F10.0
s(L30225506961978277834524160L
I5
tp325
F2.824295364810002
s(L29016581142328464287727616L
I6
tp326
F1.5009463529699922
s(I360455134611767296
I2
tp327
F2.824295364810002
s(L1180988106848069484544L
I1
tp328
F4.304672100000002
s(L1181024080630854715648L
I0
tp329
F5.314410000000002
s(L30827608857686858849125984L
I3
tp330
F2.2876792454961015
s(L2361471471828154190080L
I0
tp331
F5.314410000000002
s(L10882694033873749562884096L
I4
tp332
F1.8530201888518425
s(L26597844230414943549128704L
I4
tp333
F0.0
s(L25691316147723754069295104L
I3
tp334
F0.0
s(L31737402106213333192410112L
I3
tp335
F3.4867844010000018
s(L19345765341679693967133088L
I5
tp336
F4.304672100000002
s(L10880332849506414833434624L
I4
tp337
F1.5009463529699922
s(L24180168065054498566965760L
I3
tp338
F2.824295364810002
s(L29014220355368650952147968L
I4
tp339
F1.5009463529699922
s(L30223145778596105527754752L
I1
tp340
F5.314410000000002
s(L1771319847009097090048L
I0
tp341
F0.9847709021836121
s(L30829207070119313358260560L
I6
tp342
F0.0
s(L3025554355238721292864L
I5
tp343
F2.824295364810002
s(L7253555368047754973544448L
I2
tp344
F2.2876792454961015
s(L10881513544613132291276800L
I5
tp345
F0.5233476330273611
s(L24179697560374087572785152L
I2
tp346
F5.314410000000002
s(L6841041446811452435749504L
I5
tp347
F0.0
s(L19343994137969673224848384L
I3
tp348
F0.9847709021836121
s(L29014220247282247016906752L
I6
tp349
F0.0
s(L24178516824778885216340368L
I4
tp350
F4.304672100000002
s(L29016581214394888778417152L
I3
tp351
F2.2876792454961015
s(L19345765341697286690199976L
I0
tp352
F8.100000000000001
s(L7972535214869645004637840L
I2
tp353
F1.2157665459056939
s(L9671406557075380257850720L
I2
tp354
F3.4867844010000018
s(L11487451905896308875462016L
I5
tp355
F6.561000000000002
s(L24180168060548699916339712L
I4
tp356
F2.2876792454961015
s(L4838064461770320265609216L
I3
tp357
F4.304672100000002
s(L6047581225713688856757760L
I1
tp358
F2.824295364810002
s(L12391489651120317789110272L
I6
tp359
F3.4867844010000018
s(L29015879877805737937734208L
I5
tp360
F6.561000000000002
s(L26599209478768300103697664L
I6
tp361
F1.5009463529699922
s(L12771935589214840665212416L
I6
tp362
F0.9847709021836121
s(L30224326543212428747081344L
I0
tp363
F5.314410000000002
s(L31435097260665558617620480L
I6
tp364
F8.100000000000001
s(L25993381509871652845127680L
I6
tp365
F0.0
s(L29015806090741466706364672L
I5
tp366
F1.2157665459056939
s(L19344584406589136228583424L
I4
tp367
F3.4867844010000018
s(L10882693848100269234685504L
I0
tp368
F5.314410000000002
s(L24178516968753335797547008L
I4
tp369
F5.5204386459056956
s(L7558904250828391643154688L
I5
tp370
F2.824295364810002
s(L19342813402205214795105280L
I3
tp371
F1.8530201888518425
s(L4838830289897364739065472L
I1
tp372
F1.8530201888518425
s(L4838064461805530417201152L
I6
tp373
F5.314410000000002
s(L19345470021441450454024192L
I4
tp374
F0.797664430768726
s(L2952055600528236740608L
I2
tp375
F1.2157665459056939
s(L12091914815681611754440192L
I1
tp376
F0.797664430768726
s(L24180139705939333875402304L
I1
tp377
F10.0
s(L12089258484464654608826368L
I1
tp378
F8.100000000000001
s(L24181247231167376226519040L
I4
tp379
F1.8530201888518425
s(L1771247899394672951296L
I1
tp380
F0.0
s(L11279815642723066132301056L
I6
tp381
F10.0
s(L6349222312679007481495552L
I6
tp382
F3.4867844010000018
s(L9673768028529581865567232L
I4
tp383
F0.42391158275216256
s(L29015695410347400065190400L
I2
tp384
F3.4867844010000018
s(L27021381663639232401377632L
I6
tp385
F1.5009463529699922
s(L6349706706520050428897536L
I4
tp386
F6.561000000000002
s(L30904346855695614738433024L
I3
tp387
F0.9847709021836121
s(L30602533226715812301527392L
I3
tp388
F4.304672100000002
s(L19342813113939654275497984L
I3
tp389
F3.4867844010000018
s(L31018439967791518315840768L
I1
tp390
F0.0
s(L2361471542196898367488L
I3
tp391
F5.314410000000002
s(L1181312355004651144192L
I3
tp392
F2.824295364810002
s(L2361183351412837321024L
I3
tp393
F2.2876792454961015
s(L26146145722550228928956824L
I6
tp394
F0.0
s(L6046585200612888532747264L
I3
tp395
F6.561000000000002
s(L11487857896325150746715536L
I0
tp396
F10.0
s(L30226097654057063893960960L
I1
tp397
F0.0
s(L4838359609605130880548864L
I5
tp398
F0.9847709021836121
s(L4838433847121749434041344L
I5
tp399
F0.0
s(L7253555396195252645920768L
I4
tp400
F6.561000000000002
s(L6651895913067646728275620L
I0
tp401
F1.2157665459056939
s(L6745900993768334105905408L
I3
tp402
F5.314410000000002
s(L2804265563121671734528L
I0
tp403
F0.797664430768726
s(L25993750516768241701356544L
I1
tp404
F4.304672100000002
s(L2361759790165236123136L
I2
tp405
F0.9847709021836121
s(L7860840539696727614032384L
I3
tp406
F6.561000000000002
s(L10883381158835319636075520L
I6
tp407
F8.100000000000001
s(L24181320873993300297253888L
I5
tp408
F0.9847709021836121
s(L6346860949293570386298880L
I6
tp409
F6.561000000000002
s(L25993381437701193514617088L
I1
tp410
F0.797664430768726
s(L12581565262459279653569944L
I3
tp411
F10.0
s(L4835703566688892850538496L
I6
tp412
F5.774463646496104
s(L19345174297145909016788992L
I5
tp413
F2.824295364810002
s(L19345175044743425690700160L
I4
tp414
F2.2876792454961015
s(L30928420622330757114234469L
I4
tp415
F10.0
s(L25387442644323145651062784L
I1
tp416
F4.304672100000002
s(L24180878043908418222161920L
I4
tp417
F6.561000000000002
s(I432503893906161664
I3
tp418
F1.5009463529699922
s(I70368752567296
I3
tp419
F1.2157665459056939
s(L19345174729421100214912000L
I4
tp420
F1.5009463529699922
s(L4838360071329668355589120L
I2
tp421
F5.314410000000002
s(L30641665508281182501471808L
I6
tp422
F6.561000000000002
s(L7860969306634861280232448L
I0
tp423
F10.0
s(L6725831111842195567151680L
I5
tp424
F5.314410000000002
s(I5244928
I1
tp425
F2.824295364810002
s(I17189306368
I1
tp426
F2.716712898875686
s(L24181560861779468490900736L
I4
tp427
F8.100000000000001
s(L31812960060031065638569216L
I5
tp428
F5.314410000000002
s(L30904642003607391161026048L
I3
tp429
F1.5009463529699922
s(L24178516392362995196363776L
I2
tp430
F0.9847709021836121
s(L4835703566688892858925056L
I6
tp431
F0.797664430768726
s(L7255197038356663323593368L
I3
tp432
F8.100000000000001
s(L7860840539696728687774336L
I2
tp433
F8.100000000000001
s(L9672587725068871860749824L
I5
tp434
F2.824295364810002
s(L26900149778610024395418112L
I4
tp435
F10.0
s(L7255031341929360850421248L
I3
tp436
F3.4867844010000018
s(L10882103264068291812132352L
I1
tp437
F0.9847709021836121
s(L4835703854989664600031232L
I2
tp438
F1.2157665459056939
s(L24180878008020345809013145L
I5
tp439
F8.100000000000001
s(L19345174873641807042838528L
I4
tp440
F2.824295364810002
s(L26599098888235116596398432L
I0
tp441
F6.561000000000002
s(L9671406917205003587289088L
I4
tp442
F2.824295364810002
s(I288300744904280320
I3
tp443
F0.6461081889226681
s(L19342813564194055310540800L
I2
tp444
F2.824295364810002
s(L19345617451437181735273984L
I0
tp445
F1.8530201888518425
s(L6425370346255245609273952L
I6
tp446
F10.0
s(L9672587797161650271815680L
I1
tp447
F4.304672100000002
s(L24181357767481447716357376L
I5
tp448
F1.2157665459056939
s(L4838064461770320269805568L
I1
tp449
F5.314410000000002
s(L12694902057862332594259456L
I2
tp450
F1.8530201888518425
s(L6047728607183814469355920L
I0
tp451
F3.4867844010000018
s(L10882989356196640269010432L
I4
tp452
F3.4867844010000018
s(L12091619667798439813448704L
I2
tp453
F6.561000000000002
s(L19345174585376246522183680L
I1
tp454
F1.5009463529699922
s(L6422418885077121696532888L
I6
tp455
F10.0
s(L31737107354622750287631976L
I0
tp456
F0.0
s(L7256603926792076441681920L
I5
tp457
F3.4867844010000018
s(L6349664458076007025868800L
I6
tp458
F1.5009463529699922
s(L11486677142580320416040320L
I1
tp459
F1.8530201888518425
s(L6045810140229747890716672L
I4
tp460
F5.314410000000002
s(L29015695410277031326253056L
I2
tp461
F5.314410000000002
s(L6348631728638255444265472L
I6
tp462
F5.314410000000002
s(L25390203062779818877651456L
I4
tp463
F5.314410000000002
s(L6500805091630088241875584L
I1
tp464
F3.4867844010000018
s(L6046105486230271462475776L
I6
tp465
F8.100000000000001
s(L6755714661615831055206784L
I5
tp466
F10.0
s(L11486393956285246562961748L
I0
tp467
F10.0
s(L6349959606086783517328384L
I2
tp468
F8.100000000000001
s(L6755817249099354531534502L
I4
tp469
F10.0
s(L7558849225749997453378816L
I6
tp470
F0.0
s(L29015843632747967338776064L
I5
tp471
F1.8530201888518425
s(L7255916100929232419424256L
I2
tp472
F6.561000000000002
s(L10882693848091473141663232L
I6
tp473
F4.304672100000002
s(L24181173299899967152850944L
I0
tp474
F0.9847709021836121
s(L7253555206010555273840224L
I4
tp475
F6.561000000000002
s(L10882103264050716807792640L
I3
tp476
F4.304672100000002
s(L11665795477956515763062362L
I2
tp477
F4.304672100000002
s(L1475739666634252484608L
I5
tp478
F0.9847709021836121
s(L11485976454420481239678976L
I1
tp479
F6.561000000000002
s(L7558885804084317396732160L
I3
tp480
F2.2876792454961015
s(L24178516968823721732079616L
I1
tp481
F0.6461081889226681
s(L31831886419450695934018960L
I5
tp482
F10.0
s(L11487820984822604818122112L
I3
tp483
F6.561000000000002
s(L26598729647214394009977856L
I3
tp484
F6.561000000000002
s(L24178516680628547130230272L
I0
tp485
F0.0
s(L7858018287020608150571584L
I3
tp486
F5.314410000000002
s(L19342813546294014596088832L
I4
tp487
F5.314410000000002
s(L30830671034354535427016272L
I3
tp488
F0.0
s(L9674063176364415026989696L
I3
tp489
F3.4867844010000018
s(L12091620027998460150023776L
I2
tp490
F3.4867844010000018
s(L4838064930144681516336736L
I1
tp491
F4.304672100000002
s(L9673768388764775496024064L
I4
tp492
F3.4867844010000018
s(L6652191538354382282163808L
I2
tp493
F10.0
s(I468374378436100096
I1
tp494
F4.304672100000002
s(L25994267043711874645361920L
I5
tp495
F5.314410000000002
s(L26597548623283322518767616L
I2
tp496
F1.5009463529699922
s(L10882103264060612413491808L
I3
tp497
F8.100000000000001
s(L9673768388764801271072320L
I0
tp498
F1.8530201888518425
s(L2361183241456297444864L
I2
tp499
F2.2876792454961015
s(L12695197205931867466891264L
I5
tp500
F2.824295364810002
s(L12564548169083320336188778L
I2
tp501
F6.561000000000002
s(L29014219959087029460926464L
I3
tp502
F0.27812838944369395
s(L1181024107036315485184L
I0
tp503
F4.304672100000002
s(L9671406556917073126097920L
I2
tp504
F1.2157665459056939
s(L7254736085769284499801088L
I2
tp505
F0.9847709021836121
s(L27200831589847541426947648L
I6
tp506
F2.824295364810002
s(L1180879851093571403776L
I5
tp507
F2.824295364810002
s(L10881808692659083492197376L
I0
tp508
F0.797664430768726
s(L26598259255135002447840664L
I6
tp509
F5.314410000000002
s(L6768332446216836572908096L
I2
tp510
F8.100000000000001
s(L26596368031662596517529600L
I1
tp511
F1.2157665459056939
s(L25390541553256338423808000L
I3
tp512
F3.4867844010000018
s(I288230393341020160
I4
tp513
F1.5009463529699922
s(L12800417434126657477256857L
I0
tp514
F3.4867844010000018
s(L7256359183074970564561408L
I4
tp515
F4.304672100000002
s(L11560353528507997678993408L
I6
tp516
F8.100000000000001
s(L19345635938724097451624032L
I0
tp517
F4.304672100000002
s(L19342813690294847021252608L
I2
tp518
F1.5009463529699922
s(L24179697704559637952045056L
I4
tp519
F3.4867844010000018
s(L9671406556917059177153536L
I1
tp520
F1.8530201888518425
s(L10882694010273831985764964L
I1
tp521
F4.304672100000002
s(L26898600063026988933187840L
I3
tp522
F0.6461081889226681
s(L4835703854989637750622208L
I1
tp523
F1.5009463529699922
s(L26598139495413704633353600L
I0
tp524
F0.9847709021836121
s(L7253554917854928003137536L
I2
tp525
F8.100000000000001
s(L6044629566557458291230976L
I0
tp526
F1.8530201888518425
s(L11486640321034318304512000L
I5
tp527
F1.8530201888518425
s(L30602533233471211742583145L
I4
tp528
F6.561000000000002
s(L7256506775217897796602112L
I0
tp529
F1.2157665459056939
s(L24181468555961914905068800L
I2
tp530
F3.4867844010000018
s(L27200831626017078354380368L
I4
tp531
F5.314410000000002
s(L24180878055255378220810240L
I4
tp532
F10.0
s(L1180591787864663001472L
I2
tp533
F10.0
s(L6044629530418710110537728L
I1
tp534
F3.4867844010000018
s(L29014220391397430791241728L
I4
tp535
F4.304672100000002
s(I468532690926174208
I1
tp536
F1.8530201888518425
s(L12770948778436324824713830L
I4
tp537
F10.0
s(L7977921664139718490588822L
I5
tp538
F2.824295364810002
s(L7860674447041439118656512L
I0
tp539
F6.561000000000002
s(L11486667991150428868840000L
I0
tp540
F2.824295364810002
s(L29016581254912313174328832L
I3
tp541
F0.0
s(L19344584289495519072354304L
I5
tp542
F1.5009463529699922
s(L4835703278458533887082496L
I2
tp543
F0.5233476330273611
s(L6047457909274600690682368L
I4
tp544
F1.8530201888518425
s(L24181468159680306299797504L
I5
tp545
F2.2876792454961015
s(L25387442950663056515924992L
I3
tp546
F3.4867844010000018
s(L1180591620751771042816L
I0
tp547
F0.5233476330273611
s(L26107898654970293132462080L
I6
tp548
F0.0
s(L4838526314919340730220544L
I5
tp549
F0.797664430768726
s(L4838360186241826521351424L
I2
tp550
F6.561000000000002
s(L12090439076067792708960256L
I5
tp551
F0.9847709021836121
s(L6047758415359409763911332L
I6
tp552
F3.4867844010000018
s(L2656907699752307526208L
I0
tp553
F3.4867844010000018
s(L31736263186403307557226112L
I0
tp554
F0.0
s(L2361759790165236121600L
I2
tp555
F0.9847709021836121
s(I70394522371072
I0
tp556
F0.42391158275216256
s(L10882694033874849076609024L
I3
tp557
F2.2876792454961015
s(L31831849525962544219424128L
I0
tp558
F6.561000000000002
s(L9673767740158489704530944L
I1
tp559
F1.5009463529699922
s(L7952465805783391389878272L
I4
tp560
F5.314410000000002
s(L6046585191535320533828608L
I2
tp561
F5.314410000000002
s(L12090439193272988824765696L
I2
tp562
F10.0
s(L31923198000751947288675712L
I0
tp563
F0.0
s(L12091915211932436522206816L
I5
tp564
F5.314410000000002
s(L6047728547509766492604928L
I1
tp565
F0.0
s(I288300779255627776
I4
tp566
F0.6461081889226681
s(L19345175017651459182299392L
I4
tp567
F1.5009463529699922
s(L12092320824205481283420160L
I3
tp568
F8.100000000000001
s(L30928420577294622327834208L
I0
tp569
F5.314410000000002
s(L1770887571847970294080L
I0
tp570
F5.314410000000002
s(L19344454874056661315617792L
I1
tp571
F1.5009463529699922
s(L24180878026034762570795008L
I3
tp572
F2.824295364810002
s(L19342813762519556089186966L
I0
tp573
F0.0
s(I70385932435456
I2
tp574
F2.824295364810002
s(L3053296531417224710752L
I3
tp575
F5.314410000000002
s(I432345581407436800
I2
tp576
F1.2157665459056939
s(L7977969294209446450562710L
I1
tp577
F8.100000000000001
s(L11486271746581586156455504L
I0
tp578
F1.5009463529699922
s(L12089258196234269857153024L
I2
tp579
F4.304672100000002
s(L24180158728975930318128640L
I4
tp580
F2.2876792454961015
s(L7751045854488199561545280L
I6
tp581
F8.100000000000001
s(L7555786660821825683980288L
I6
tp582
F1.2157665459056939
s(L7860674158800067850665984L
I1
tp583
F4.304672100000002
s(L2361183311820746653696L
I3
tp584
F2.2876792454961015
s(L12696470247351748766467648L
I5
tp585
F0.0
s(L4835703710804080926392320L
I6
tp586
F3.3539665418218347
s(L29014220247211873971208192L
I6
tp587
F3.4867844010000018
s(L2361471471833532336640L
I2
tp588
F2.2876792454961015
s(L12695307886396451458714006L
I2
tp589
F10.0
s(L30225083155190565251188384L
I1
tp590
F8.100000000000001
s(L29015400838902973015785472L
I2
tp591
F2.2876792454961015
s(L10880332664859929618679808L
I3
tp592
F1.2157665459056939
s(L30827608857686865291576928L
I2
tp593
F2.824295364810002
s(L12572489680432308212991616L
I5
tp594
F6.561000000000002
s(L7558634449178602706175232L
I6
tp595
F4.304672100000002
s(L7256599279077260995330048L
I5
tp596
F2.824295364810002
s(L1180591620751775236096L
I1
tp597
F3.4867844010000018
s(L25389029394806905952176528L
I4
tp598
F6.561000000000002
s(L26596368031662596515956736L
I0
tp599
F0.9847709021836121
s(L32160496740783385332418816L
I6
tp600
F0.0
s(L24178516968918290463195136L
I3
tp601
F1.8530201888518425
s(L11486686365952357271078272L
I1
tp602
F2.2876792454961015
s(L1598525828865124272448L
I3
tp603
F4.304672100000002
s(L4835703278564069823480832L
I0
tp604
F6.561000000000002
s(L19342813113834101159231488L
I2
tp605
F2.824295364810002
s(L12800440534217668244907673L
I5
tp606
F10.0
s(L4836884518755951599158528L
I4
tp607
F0.0
s(L24181246960955816229372928L
I1
tp608
F10.0
s(L11656350726941188222355032L
I6
tp609
F2.2876792454961015
s(L4838064461770363220789248L
I1
tp610
F8.100000000000001
s(L25993529083711377229056358L
I5
tp611
F1.8530201888518425
s(L24181468555961906315133952L
I4
tp612
F2.824295364810002
s(L4835703278564069815091200L
I6
tp613
F5.314410000000002
s(L7935937568199324374206870L
I1
tp614
F10.0
s(L19342813402064442953304448L
I1
tp615
F2.824295364810002
s(L7558634449178602739746048L
I1
tp616
F5.314410000000002
s(L26598138919023308190255616L
I6
tp617
F5.314410000000002
s(L25389065975930396988147712L
I5
tp618
F0.0
s(L29016581308926492978448384L
I6
tp619
F6.561000000000002
s(L10880332664850034014029824L
I6
tp620
F0.9847709021836121
s(L11486732482809260190112000L
I4
tp621
F10.0
s(L7933576150750921057372768L
I3
tp622
F8.100000000000001
s(L10882693848183814935283072L
I2
tp623
F5.314410000000002
s(L26596368463959810154432096L
I4
tp624
F0.0
s(L11336410433685186915468544L
I3
tp625
F8.100000000000001
s(L31433547815228164597089280L
I4
tp626
F10.0
s(L19342813690453174547120128L
I2
tp627
F1.2157665459056939
s(L24181468555979504941533760L
I4
tp628
F3.4867844010000018
s(L29015889749713709026312192L
I5
tp629
F6.561000000000002
s(L26598139603615535820964864L
I5
tp630
F2.824295364810002
s(L11656350726976376889411160L
I2
tp631
F2.824295364810002
s(L7935937450993583451538432L
I0
tp632
F4.304672100000002
s(L19345174729533669562647952L
I2
tp633
F4.304672100000002
s(L12394247898761723464976032L
I1
tp634
F0.0
s(I288335950753300480
I4
tp635
F1.2157665459056939
s(L10882694033874853372100608L
I2
tp636
F2.824295364810002
s(L11336041201678303991585380L
I2
tp637
F10.0
s(I648588715085529088
I4
tp638
F1.2157665459056939
s(L19345617451437164555404288L
I4
tp639
F1.5009463529699922
s(L10882103264138687403000832L
I2
tp640
F3.4867844010000018
s(L31737402250328821925413888L
I2
tp641
F6.561000000000002
s(L9671406557057770890200320L
I1
tp642
F1.8530201888518425
s(L24180103574629326824049040L
I3
tp643
F5.314410000000002
s(L26898600063027023292926272L
I2
tp644
F0.797664430768726
s(L4835703854989678951269376L
I6
tp645
F2.2876792454961015
s(I288300744904278016
I3
tp646
F3.4867844010000018
s(L24181467871344394202251264L
I5
tp647
F5.314410000000002
s(L24180435260126142511254016L
I5
tp648
F6.561000000000002
s(L10882270041356498455889572L
I0
tp649
F0.0
s(L19344363397050946968619264L
I1
tp650
F1.8530201888518425
s(L32113761874255993110530662L
I0
tp651
F0.0
s(L4838064461770320265610752L
I3
tp652
F0.34336838202925174
s(L6346860841312773247860736L
I6
tp653
F8.100000000000001
s(L29015991134713297361700352L
I4
tp654
F2.2876792454961015
s(L19344363361017751902619648L
I0
tp655
F1.2157665459056939
s(L4838065038341047778806144L
I3
tp656
F2.824295364810002
s(L30720839340271243553146468L
I3
tp657
F10.0
s(L1475739638089904029696L
I5
tp658
F2.824295364810002
s(L6046990857845701753177600L
I6
tp659
F1.8530201888518425
s(I648518363526466048
I4
tp660
F4.304672100000002
s(L30225802278733285691754496L
I3
tp661
F10.0
s(L27202307401518997463631424L
I4
tp662
F2.824295364810002
s(I288230376161148928
I1
tp663
F2.824295364810002
s(L6349812680645943116580352L
I2
tp664
F6.561000000000002
s(L6045809977924239444937216L
I6
tp665
F4.304672100000002
s(L30603886576376467523470912L
I5
tp666
F0.0
s(L24180878052985986221080576L
I4
tp667
F8.100000000000001
s(L1180591761472079527936L
I2
tp668
F0.797664430768726
s(L7858018404065793107034112L
I1
tp669
F2.2876792454961015
s(L1586420148668705867776L
I1
tp670
F2.2876792454961015
s(L19344584433610748220408832L
I1
tp671
F1.8530201888518425
s(L9671406556987402146021376L
I3
tp672
F2.824295364810002
s(L24180287279864397107823616L
I1
tp673
F5.314410000000002
s(I140761517522944
I1
tp674
F0.9847709021836121
s(L4835703278625669586616320L
I2
tp675
F6.561000000000002
s(L25993556753827487793383782L
I5
tp676
F2.2876792454961015
s(L19345765043358426794558872L
I5
tp677
F6.561000000000002
s(L31433547481922229624113488L
I4
tp678
F0.0
s(L1476027897010404198400L
I5
tp679
F1.5009463529699922
s(L4836884446627992446175232L
I3
tp680
F0.0
s(L11487857896325150746707328L
I4
tp681
F8.100000000000001
s(L6768996529003490116766272L
I5
tp682
F10.0
s(L29016138708687877270668928L
I0
tp683
F3.4867844010000018
s(L9672587545024225067140096L
I3
tp684
F8.100000000000001
s(I38654706688
I2
tp685
F2.200537448089306
s(I576531138233761792
I2
tp686
F6.561000000000002
s(L19345174297075501622099968L
I5
tp687
F1.63087909110628
s(L9671406557075363077948768L
I3
tp688
F2.824295364810002
s(L7256211248992753263050752L
I3
tp689
F3.4867844010000018
s(L24178516392292600682383360L
I1
tp690
F0.34336838202925174
s(L6044629386444298168305664L
I6
tp691
F0.0
s(L25390578158399760478240768L
I5
tp692
F10.0
s(L30225977755757714599839232L
I5
tp693
F0.0
s(L24178516968753335797548544L
I0
tp694
F1.5009463529699922
s(L30224805697420369797057088L
I2
tp695
F10.0
s(L24181247159028973458950761L
I3
tp696
F0.0
s(I70385932435456
I3
tp697
F1.1410328127979776
s(L2361183352512885819712L
I3
tp698
F2.824295364810002
s(L4836884590751972743972480L
I1
tp699
F6.561000000000002
s(L31433741388947365422235648L
I6
tp700
F8.100000000000001
s(I648685489293888148
I0
tp701
F8.100000000000001
s(L24181172723579935164728320L
I1
tp702
F0.42391158275216256
s(L31433743694790374635945984L
I5
tp703
F10.0
s(L11184187606139788274845312L
I6
tp704
F0.0
s(L31434801860519234897184256L
I0
tp705
F2.824295364810002
s(I21483225088
I2
tp706
F0.9847709021836121
s(L19342813113974804283655168L
I3
tp707
F5.339804589851845
s(L10880332808973983823167488L
I6
tp708
F0.9847709021836121
s(L19345469733321034055027200L
I2
tp709
F0.0
s(L11563378871054718096902740L
I3
tp710
F10.0
s(L24179697560549992254409312L
I0
tp711
F1.2157665459056939
s(L12694902057862293939553792L
I4
tp712
F1.5009463529699922
s(L19344584361733461602467840L
I2
tp713
F10.0
s(L24181468561872889418352640L
I0
tp714
F1.8530201888518425
s(L30928420433179429957010944L
I4
tp715
F3.4867844010000018
s(L26599436649292329544948288L
I6
tp716
F0.0
s(L19344288853465542445500928L
I3
tp717
F0.797664430768726
s(L9673767740246446330347520L
I3
tp718
F2.824295364810002
s(L6349706702016450801518848L
I5
tp719
F5.314410000000002
s(L1181168081469718921216L
I1
tp720
F2.2876792454961015
s(I87995289962080
I3
tp721
F3.4867844010000018
s(L25993381437701193514715494L
I0
tp722
F1.5009463529699922
s(L27050895805498045195356160L
I6
tp723
F1.5009463529699922
s(L2361183329395752828928L
I3
tp724
F0.797664430768726
s(L9673767740228862742627648L
I0
tp725
F0.6461081889226681
s(L1476315986649067552768L
I5
tp726
F2.824295364810002
s(L19343993705613154683191296L
I2
tp727
F4.304672100000002
s(L24178516680522959654225920L
I0
tp728
F2.824295364810002
s(L2656619376990327144448L
I5
tp729
F0.34336838202925174
s(L9671407133448154449445888L
I1
tp730
F2.2876792454961015
s(L7256606242768185890702848L
I2
tp731
F6.561000000000002
s(L1770887607036637350208L
I2
tp732
F6.561000000000002
s(L24181173173979521391133696L
I1
tp733
F8.100000000000001
s(L11302221418264446730918249L
I6
tp734
F0.0
s(L12694902058026688111968256L
I4
tp735
F2.2876792454961015
s(L4838064461770354630592512L
I1
tp736
F6.561000000000002
s(L19342813762352447500584448L
I2
tp737
F1.2157665459056939
s(L27202676300399422271915008L
I2
tp738
F4.304672100000002
s(L6727306609273269175453696L
I5
tp739
F8.100000000000001
s(L11354515156428388980491776L
I6
tp740
F2.2876792454961015
s(L1180591787860358594560L
I5
tp741
F5.314410000000002
s(L26599320195208763626490464L
I0
tp742
F5.314410000000002
s(L3048782303657063719936L
I5
tp743
F6.561000000000002
s(L19342813113974804287848448L
I3
tp744
F0.42391158275216256
s(L11665832377084058858292826L
I3
tp745
F10.0
s(L29014220103211030819112512L
I4
tp746
F0.6461081889226681
s(L27051190953579180772559104L
I2
tp747
F2.824295364810002
s(L26596368031662579336085504L
I3
tp748
F0.797664430768726
s(L4838654757580678975455232L
I3
tp749
F5.314410000000002
s(L24180878026069928690583961L
I3
tp750
F10.0
s(I396457539061940224
I1
tp751
F2.824295364810002
s(L27315644215219008640190872L
I0
tp752
F8.100000000000001
s(L25842443374556885710539328L
I2
tp753
F10.0
s(L6652214575421255553649048L
I5
tp754
F6.561000000000002
s(L19342813113992424396424192L
I2
tp755
F3.4867844010000018
s(I576553138132092928
I2
tp756
F2.2876792454961015
s(L4838747747946501207229696L
I3
tp757
F0.0
s(L26598729693270754263894016L
I5
tp758
F0.0
s(L31023118901499390518994328L
I0
tp759
F0.0
s(L4838756593004474175326824L
I4
tp760
F10.0
s(L25388623524103904825442304L
I1
tp761
F2.2876792454961015
s(L4835703854919269006442496L
I1
tp762
F0.27812838944369395
s(L4838064461805532564750336L
I1
tp763
F6.561000000000002
s(L19343993705454818573157376L
I2
tp764
F2.824295364810002
s(L6727011451234988513560576L
I3
tp765
F5.314410000000002
s(L1180591691120515219456L
I3
tp766
F1.5009463529699922
s(L9671406845235404839321600L
I3
tp767
F0.797664430768726
s(L29015695410277014147432448L
I1
tp768
F0.34336838202925174
s(L19344584001335533142018560L
I0
tp769
F4.304672100000002
s(L4837179738657152096929408L
I5
tp770
F8.100000000000001
s(L29017273327541631399757408L
I5
tp771
F0.0
s(L6047758415359410837653158L
I2
tp772
F4.304672100000002
s(L26599098892738716223777120L
I1
tp773
F8.100000000000001
s(L4835703278458533887082496L
I6
tp774
F3.4867844010000018
s(I454969115489077504
I4
tp775
F0.9847709021836121
s(L27279340932724190829610240L
I3
tp776
F0.0
s(L7935937333992355880241760L
I1
tp777
F10.0
s(L19345174297075523099035648L
I1
tp778
F1.2157665459056939
s(L24180877575604421426939392L
I0
tp779
F5.314410000000002
s(L4835703278599254191374336L
I6
tp780
F1.8530201888518425
s(L27202602477278621848569232L
I6
tp781
F1.5009463529699922
s(L7860840539696728958306944L
I2
tp782
F10.0
s(L9671406845288147037717760L
I4
tp783
F2.2876792454961015
s(I87960940708864
I3
tp784
F1.5009463529699922
s(L26183844184351977769421440L
I0
tp785
F6.561000000000002
s(L29015400649681411338668392L
I2
tp786
F0.0
s(L7256603936925175603265536L
I4
tp787
F4.304672100000002
s(L1180988107122949488640L
I3
tp788
F5.314410000000002
s(L9672587535847335953434984L
I2
tp789
F8.100000000000001
s(L6349621408353627479214592L
I3
tp790
F0.0
s(L25994562191617054065296800L
I0
tp791
F8.100000000000001
s(L29016157299547139056076416L
I4
tp792
F4.304672100000002
s(L25387442211907229859186688L
I1
tp793
F0.42391158275216256
s(I88006032621568
I3
tp794
F0.0
s(L9674063464619593542501952L
I3
tp795
F6.561000000000002
s(L25390394381487518593189888L
I1
tp796
F2.2876792454961015
s(L12091620064027257169249888L
I1
tp797
F4.304672100000002
s(L19345839128673581528406442L
I0
tp798
F10.0
s(L11487821128920202580328448L
I3
tp799
F6.561000000000002
s(L27019389221670628631775616L
I3
tp800
F10.0
s(L31433695271977225689236992L
I6
tp801
F2.2876792454961015
s(L19345174585418068767278464L
I3
tp802
F2.2876792454961015
s(L26596368031609845731820544L
I6
tp803
F1.2157665459056939
s(L12572508271291569999447712L
I5
tp804
F10.0
s(L9673177732578507147446272L
I4
tp805
F6.561000000000002
s(L6349222312819749264818176L
I2
tp806
F4.304672100000002
s(L6044629571061092278339840L
I4
tp807
F2.2876792454961015
s(L6349701812197998290012416L
I6
tp808
F0.0
s(L6651748339097464863721120L
I2
tp809
F0.797664430768726
s(L7255031305900288953550336L
I4
tp810
F2.824295364810002
s(L24180139705938234363741184L
I3
tp811
F6.561000000000002
s(L4838064912165484565103616L
I4
tp812
F2.824295364810002
s(L26598260444261225934161305L
I3
tp813
F10.0
s(L29015400262371834792509440L
I1
tp814
F0.27812838944369395
s(L26599393982185058465221216L
I1
tp815
F6.561000000000002
s(L1180591620760365171712L
I1
tp816
F0.6461081889226681
s(L6046990857880914042880000L
I6
tp817
F8.100000000000001
s(L9674063608734791282034256L
I2
tp818
F10.0
s(L11486713747898591935202560L
I2
tp819
F5.314410000000002
s(L24178517040810964195213312L
I2
tp820
F5.314410000000002
s(L12090928275113298626953216L
I1
tp821
F0.0
s(L29015400262371817604251648L
I6
tp822
F1.5009463529699922
s(L31434432853624147127829760L
I6
tp823
F2.824295364810002
s(L4835703999122459229947392L
I2
tp824
F3.4867844010000018
s(L4838064894115901681434624L
I6
tp825
F1.8530201888518425
s(L10882694010230960958736960L
I4
tp826
F2.824295364810002
s(L24180878152100358096160000L
I5
tp827
F4.304672100000002
s(L7255031107573677499088896L
I4
tp828
F8.100000000000001
s(L24181468555979507093210368L
I1
tp829
F4.304672100000002
s(L25993865835975472714875904L
I6
tp830
F0.0
s(L12545658693018739842286954L
I1
tp831
F3.4867844010000018
s(L26597548623212966653725184L
I6
tp832
F0.0
s(L27353423157127121217144424L
I3
tp833
F10.0
s(L26599209514797097122661696L
I4
tp834
F1.8530201888518425
s(L2361615657384974221312L
I3
tp835
F1.5009463529699922
s(I576531121047602176
I0
tp836
F1.8530201888518425
s(L7256506856177126165972224L
I2
tp837
F6.561000000000002
s(L26146065252484622561184256L
I6
tp838
F4.304672100000002
s(L29015842984299989741603392L
I5
tp839
F4.304672100000002
s(L12696082721720942476985344L
I1
tp840
F10.0
s(L24180170370897507780659776L
I5
tp841
F3.4867844010000018
s(L11336041192671103663102564L
I2
tp842
F8.100000000000001
s(L24180103574627127800793472L
I1
tp843
F4.304672100000002
s(L10882250838025279535056384L
I3
tp844
F1.2157665459056939
s(L19342813113904478493343744L
I2
tp845
F6.561000000000002
s(L11486566750389152440292713L
I1
tp846
F8.100000000000001
s(L27353423155992424948827712L
I4
tp847
F5.314410000000002
s(L9671406556987419331397632L
I3
tp848
F2.2876792454961015
s(L6727472223537636908730022L
I5
tp849
F1.8530201888518425
s(I288230410511451136
I0
tp850
F1.5009463529699922
s(L10883284329685212077753344L
I0
tp851
F3.4867844010000018
s(L19345174297145909023080448L
I5
tp852
F2.824295364810002
s(L7256359111017376526632960L
I2
tp853
F3.4867844010000018
s(L6346861021351207373113744L
I0
tp854
F8.100000000000001
s(L19343994281915564433178624L
I1
tp855
F2.2876792454961015
s(L19343993705595547464761344L
I2
tp856
F3.4867844010000018
s(L30928420577294622327834112L
I4
tp857
F4.304672100000002
s(L6047580577230526881989632L
I6
tp858
F4.304672100000002
s(L25388623379988699573913600L
I4
tp859
F0.5233476330273611
s(L27372607688775697559889301L
I2
tp860
F8.100000000000001
s(L8011790246550870393422848L
I1
tp861
F10.0
s(L27302952765152160013355008L
I5
tp862
F0.0
s(L30224326543212427673339392L
I4
tp863
F4.304672100000002
s(L6346860985463104883132416L
I6
tp864
F3.4867844010000018
s(L9673768208701076225916928L
I3
tp865
F3.4867844010000018
s(L7977847877163423111317140L
I0
tp866
F1.8530201888518425
s(L11665832375948262809536090L
I4
tp867
F5.314410000000002
s(L19342813690294819102916608L
I4
tp868
F0.797664430768726
s(L6727472223546433270187686L
I2
tp869
F2.2876792454961015
s(L6425266878340778074663168L
I6
tp870
F10.0
s(L12091125929054149363238464L
I5
tp871
F8.100000000000001
s(L24179697560374087576978432L
I1
tp872
F0.5233476330273611
s(L11637829475350420649149696L
I2
tp873
F6.561000000000002
s(I140758963191808
I2
tp874
F0.6461081889226681
s(L31433547518056555604231488L
I3
tp875
F0.0
s(L27070080995971420246772056L
I0
tp876
F5.314410000000002
s(L6519995063648574382278310L
I6
tp877
F6.561000000000002
s(L24180066495440266833431146L
I0
tp878
F2.2876792454961015
s(L12694902386739433128134656L
I1
tp879
F10.0
s(L11562124613956754268749824L
I6
tp880
F8.100000000000001
s(L1586420148668705277952L
I1
tp881
F1.8530201888518425
s(L7558885804074144766691584L
I6
tp882
F1.5009463529699922
s(L12391489651225910639395840L
I1
tp883
F2.824295364810002
s(L31433252307107054546322688L
I3
tp884
F0.0
s(L12394146666836093815916128L
I6
tp885
F6.561000000000002
s(L9671406556987419321696256L
I2
tp886
F6.561000000000002
s(L12092080908347930800687744L
I4
tp887
F6.561000000000002
s(L9672587436768152730469888L
I5
tp888
F3.4867844010000018
s(L4837474165889610004037632L
I6
tp889
F1.8530201888518425
s(L6046216280973394281400720L
I2
tp890
F0.0
s(L11680305769650650336265616L
I6
tp891
F5.314410000000002
s(L25692625830509081808758272L
I1
tp892
F0.0
s(L12790972629103324148901520L
I3
tp893
F2.2876792454961015
s(L26976887918819003173177600L
I3
tp894
F5.314410000000002
s(L32190306638744493545752576L
I6
tp895
F10.0
s(L4837345759257017228197888L
I6
tp896
F4.304672100000002
s(L1180879851127922753536L
I5
tp897
F4.304672100000002
s(L19345174873676991413880064L
I5
tp898
F5.314410000000002
s(L6046990737392003908635136L
I3
tp899
F0.0
s(L12090439193272437995209984L
I3
tp900
F8.100000000000001
s(L19342813113834066801590272L
I1
tp901
F8.40287967633669
s(L30225083119161768230782624L
I0
tp902
F5.314410000000002
s(L4837179594613436415215104L
I3
tp903
F1.8530201888518425
s(L7708378533193909554972160L
I1
tp904
F4.304672100000002
s(L1180591691120515219456L
I5
tp905
F5.314410000000002
s(L4836884446540025068257280L
I2
tp906
F0.6461081889226681
s(L19345174297145870362083328L
I5
tp907
F1.8530201888518425
s(L19345174297075518801971200L
I0
tp908
F0.9847709021836121
s(L12694902093891130686965248L
I2
tp909
F2.2876792454961015
s(L1180978930285375916392L
I1
tp910
F6.561000000000002
s(L11487452050013697316750720L
I2
tp911
F10.0
s(L27203882266409567273354896L
I6
tp912
F0.0
s(L1596219981457864067392L
I0
tp913
F3.4867844010000018
s(L19342813113904469905506304L
I2
tp914
F2.2876792454961015
s(L12090734404222488808932688L
I0
tp915
F10.0
s(L1771337861441967359488L
I1
tp916
F8.100000000000001
s(L26598016313027075204515456L
I4
tp917
F6.561000000000002
s(L32143249036365716612818585L
I2
tp918
F0.0
s(L1180988107122950013952L
I0
tp919
F6.561000000000002
s(L25842443374556885609876032L
I6
tp920
F8.100000000000001
s(L26598016313027075472950944L
I0
tp921
F8.100000000000001
s(L7631344524547740007401472L
I6
tp922
F1.5009463529699922
s(L24181468519862740551992320L
I5
tp923
F2.2876792454961015
s(L19344289574041457064411136L
I3
tp924
F0.9847709021836121
s(L12808238893983579246692608L
I4
tp925
F8.100000000000001
s(L12090439075997423971076416L
I2
tp926
F4.304672100000002
s(L4835703927047266144092160L
I6
tp927
F1.5009463529699922
s(L6044629386409113806700544L
I2
tp928
F6.561000000000002
s(L11487821027031771456734800L
I0
tp929
F6.561000000000002
s(L9673768424798009216204800L
I2
tp930
F5.314410000000002
s(L24178517076910112788971520L
I4
tp931
F0.797664430768726
s(L4835703855007271137314304L
I3
tp932
F2.824295364810002
s(I576548739003449344
I3
tp933
F1.5009463529699922
s(L7860379010806914677211136L
I2
tp934
F2.824295364810002
s(L7708378533193909554906112L
I5
tp935
F3.4867844010000018
s(L19342813113834083983556608L
I1
tp936
F3.706040377703685
s(L31737402250328822999680000L
I1
tp937
F8.100000000000001
s(L25389804043778621754575206L
I2
tp938
F0.0
s(L7253555494258478518632448L
I1
tp939
F1.8530201888518425
s(L29016950257362759659290624L
I4
tp940
F8.100000000000001
s(L26977005426738721297425808L
I3
tp941
F0.0
s(L8011026183798941992092928L
I5
tp942
F0.0
s(L6348503033880891180974080L
I6
tp943
F8.100000000000001
s(L9673768208701078373662720L
I1
tp944
F4.304672100000002
s(L9671406556987402141828096L
I0
tp945
F0.8478231655043251
s(L9671406845147435319165952L
I0
tp946
F2.824295364810002
s(L19344289429935091919882752L
I3
tp947
F1.2157665459056939
s(L30923930767506529912621672L
I4
tp948
F0.0
s(L10880332845002780846325760L
I1
tp949
F1.2157665459056939
s(I648676693200865936
I0
tp950
F6.561000000000002
s(L12545649451632304477963624L
I1
tp951
F2.2876792454961015
s(L4836884158415197746234880L
I5
tp952
F10.0
s(L31737051789223752331691680L
I0
tp953
F6.561000000000002
s(L26599320195208763559381568L
I6
tp954
F4.304672100000002
s(L4838064461875897428871552L
I2
tp955
F2.2876792454961015
s(L11486566750397952828282217L
I2
tp956
F10.0
s(L27014666855185559962257664L
I6
tp957
F6.561000000000002
s(L19345174585446615264527872L
I5
tp958
F6.561000000000002
s(L12770459967890881931380372L
I4
tp959
F6.561000000000002
s(L9671406557092972442158336L
I2
tp960
F2.2876792454961015
s(L27202713193887638410494976L
I5
tp961
F5.314410000000002
s(L6349812680643743019582976L
I1
tp962
F5.314410000000002
s(L19345174747549847930275072L
I5
tp963
F8.100000000000001
s(L7253555377195701377174080L
I0
tp964
F4.304672100000002
s(L10880332376531662576549888L
I6
tp965
F0.42391158275216256
s(L29016950221333962371891200L
I3
tp966
F6.561000000000002
s(L27023318571810953981331814L
I3
tp967
F5.314410000000002
s(L19343993705613155220063232L
I2
tp968
F5.314410000000002
s(L12695270992908162305689984L
I1
tp969
F5.314410000000002
s(L27203782420468928075530240L
I6
tp970
F0.0
s(L24178516392292617862251520L
I2
tp971
F6.112074430768728
s(L7935167407630757641063018L
I1
tp972
F0.0
s(L19343994137967474201591808L
I3
tp973
F0.797664430768726
s(L19345635898191700805289472L
I3
tp974
F2.824295364810002
s(L26976887900795808570673408L
I3
tp975
F4.304672100000002
s(L26597548623142559254841344L
I6
tp976
F1.2157665459056939
s(L26597844347684438547171328L
I4
tp977
F2.2876792454961015
s(L29015990558182176314099200L
I5
tp978
F1.8530201888518425
s(L24180878007879582544297984L
I4
tp979
F4.304672100000002
s(L7977969294209446416746134L
I5
tp980
F6.561000000000002
s(L11378026226434977734592100L
I4
tp981
F0.0
s(L29016876434243312965387264L
I6
tp982
F1.8530201888518425
s(L29015695410276996965466112L
I6
tp983
F4.304672100000002
s(I576553111290643456
I3
tp984
F1.8530201888518425
s(L12770459967908474251642516L
I3
tp985
F8.100000000000001
s(L7256211537064782555252736L
I4
tp986
F2.824295364810002
s(L12394515277436402121311584L
I5
tp987
F1.5009463529699922
s(L2361471471828154187776L
I4
tp988
F4.304672100000002
s(L6346861129437555481117696L
I0
tp989
F8.100000000000001
s(L24181173185735481197397376L
I0
tp990
F0.0
s(L19344436427312587603969024L
I5
tp991
F1.2157665459056939
s(L24180287279864431468610560L
I2
tp992
F6.561000000000002
s(L9671406556987402146021376L
I1
tp993
F2.2876792454961015
s(L19344584361729062883819520L
I2
tp994
F6.561000000000002
s(L26597549199691315446548032L
I4
tp995
F1.8530201888518425
s(L25993556782537935417870694L
I4
tp996
F3.4867844010000018
s(L8029868361917925602796949L
I5
tp997
F0.0
s(L4838065038272331710990656L
I2
tp998
F4.304672100000002
s(L9673767740264038520587264L
I0
tp999
F10.0
s(I576553137058349056
I3
tp1000
F1.8530201888518425
s(L10883284540222997096562688L
I6
tp1001
F6.561000000000002
s(L24178516968867702195094528L
I3
tp1002
F1.2157665459056939
s(L1180879965442778859520L
I4
tp1003
F4.304672100000002
s(L26596368716184459704009728L
I4
tp1004
F2.2876792454961015
s(L6349812716675015013451264L
I3
tp1005
F8.100000000000001
s(L26111618250452694351845734L
I2
tp1006
F6.561000000000002
s(L9673768028459238894339424L
I4
tp1007
F0.797664430768726
s(L6651748339097460568753792L
I2
tp1008
F0.6461081889226681
s(L4835703278546520578721376L
I6
tp1009
F4.304672100000002
s(L12394294240788683492333152L
I1
tp1010
F8.100000000000001
s(L7255105140164723476530790L
I5
tp1011
F8.100000000000001
s(L25390541553247525150916608L
I5
tp1012
F2.824295364810002
s(I9438208
I1
tp1013
F0.9847709021836121
s(L9671406557057770891248640L
I1
tp1014
F1.5009463529699922
s(I70394523418624
I1
tp1015
F0.6461081889226681
s(L25993086289796014161266944L
I6
tp1016
F0.6461081889226681
s(L7634192312904654502126996L
I0
tp1017
F10.0
s(L9673768388764803686991424L
I2
tp1018
F2.2876792454961015
s(L7977257581353064405665424L
I6
tp1019
F1.5009463529699922
s(L12393450072569240761927168L
I5
tp1020
F8.100000000000001
s(L26901440974248334542390628L
I2
tp1021
F4.304672100000002
s(L6346860985463139247065664L
I0
tp1022
F5.314410000000002
s(L6765178117200517058005504L
I4
tp1023
F0.0
s(L10883358075010892184257920L
I2
tp1024
F5.314410000000002
s(L19342813113834066795300352L
I0
tp1025
F2.2986107837387184
s(I720575961858310144
I2
tp1026
F6.561000000000002
s(L9673768141075635038848000L
I1
tp1027
F5.314410000000002
s(L7256359399423674547176784L
I0
tp1028
F10.0
s(L2361183241452002477056L
I2
tp1029
F1.8530201888518425
s(L2656619517727815500800L
I0
tp1030
F0.42391158275216256
s(L26599098437875127017277440L
I6
tp1031
F2.2876792454961015
s(L11183744711286447797176576L
I0
tp1032
F0.0
s(L4838065146335082934011904L
I3
tp1033
F2.2876792454961015
s(L1771175731821021233152L
I3
tp1034
F0.797664430768726
s(L7255447330391974766773657L
I1
tp1035
F0.0
s(L4838064461699951521432576L
I0
tp1036
F3.102423754253696
s(L26599319798804034080475136L
I1
tp1037
F0.0
s(L9671406556917033397650688L
I0
tp1038
F1.5009463529699922
s(L19344289429926295822666240L
I4
tp1039
F0.9847709021836121
s(L7256506856177125091706112L
I0
tp1040
F5.314410000000002
s(L7256654430147308565366016L
I3
tp1041
F10.0
s(L6349709012363063937558784L
I2
tp1042
F8.100000000000001
s(L4835703278599288552161280L
I1
tp1043
F2.2876792454961015
s(L19344584397581935900100608L
I4
tp1044
F2.824295364810002
s(L29015400947024553809282560L
I3
tp1045
F2.2876792454961015
s(L24179697560374087568588800L
I2
tp1046
F0.42391158275216256
s(L25389803395219061339325952L
I2
tp1047
F8.100000000000001
s(L6650568396037586049894400L
I1
tp1048
F10.0
s(L10883284540224096610289920L
I3
tp1049
F10.0
s(L12696377797458598103615488L
I3
tp1050
F0.0
s(L6652216881264333486819736L
I3
tp1051
F8.100000000000001
s(L4835703278616880732963840L
I3
tp1052
F0.34336838202925174
s(L19344363401554546596120832L
I1
tp1053
F2.2876792454961015
s(L7255916749630099189402006L
I4
tp1054
F5.314410000000002
s(L26183853407724014624201344L
I5
tp1055
F8.100000000000001
s(L12543786258528832849282048L
I5
tp1056
F4.304672100000002
s(L7977847877163423115511446L
I1
tp1057
F2.2876792454961015
s(L7736712615107492132686168L
I2
tp1058
F0.0
s(L26598729214833688365500416L
I6
tp1059
F0.0
s(L11665832377082959346533978L
I4
tp1060
F8.100000000000001
s(L29015695698648149261814016L
I3
tp1061
F10.0
s(L1180591761472088965120L
I2
tp1062
F2.824295364810002
s(L10880332826891625315043840L
I6
tp1063
F1.8530201888518425
s(L24179697632590018428011776L
I2
tp1064
F10.0
s(L24178516392433338166544896L
I0
tp1065
F0.6461081889226681
s(L10881808116163112461142272L
I6
tp1066
F6.561000000000002
s(L6803332608997637110368664L
I4
tp1067
F10.0
s(L2361183311820746653696L
I2
tp1068
F1.2157665459056939
s(L27023152551105493964163424L
I5
tp1069
F2.2876792454961015
s(L26977286766610686804580714L
I0
tp1070
F0.0
s(L7253554917846121906702336L
I3
tp1071
F1.5009463529699922
s(L4838551355045687063086336L
I2
tp1072
F3.4867844010000018
s(L19342813113904469899214848L
I2
tp1073
F7.602089245496104
s(L30640312165615643881003369L
I6
tp1074
F8.100000000000001
s(L7253555205918168388206592L
I2
tp1075
F0.9847709021836121
s(L24181569688824142461143656L
I3
tp1076
F0.0
s(L9672587797170446365100032L
I1
tp1077
F5.314410000000002
s(L25692772719920850312627712L
I0
tp1078
F0.0
s(L12770459849601024035651584L
I6
tp1079
F1.5009463529699922
s(L7557336655768758345378304L
I6
tp1080
F0.0
s(L7633705797861175967352832L
I4
tp1081
F2.2876792454961015
s(L6349665034677496817729536L
I1
tp1082
F2.2876792454961015
s(L10882269284764972381243648L
I6
tp1083
F5.314410000000002
s(L10880332953150761735980393L
I6
tp1084
F5.314410000000002
s(L24180877863764394476830720L
I1
tp1085
F1.5009463529699922
s(L12392965967106966856664704L
I6
tp1086
F4.304672100000002
s(I288406298016351232
I0
tp1087
F3.4867844010000018
s(L25886119503853962443463316L
I3
tp1088
F0.0
s(L7256285778904649696913760L
I2
tp1089
F0.0
s(L30224743907945503196076352L
I4
tp1090
F2.824295364810002
s(L4837179738659351120184976L
I0
tp1091
F10.0
s(L7936527818887925011055872L
I4
tp1092
F8.100000000000001
s(L24180877863940316335441408L
I3
tp1093
F8.100000000000001
s(L24180139705939333875369472L
I0
tp1094
F8.100000000000001
s(L30225506961978295016490496L
I1
tp1095
F3.4867844010000018
s(L6755640874639536217000192L
I5
tp1096
F8.100000000000001
s(L6349222132605373953083392L
I3
tp1097
F8.100000000000001
s(I70409546368000
I3
tp1098
F1.5009463529699922
s(L25993381437701193514617184L
I0
tp1099
F0.9847709021836121
s(L6346860985322410354149760L
I6
tp1100
F6.561000000000002
s(L31433252298087550211851264L
I6
tp1101
F0.0
s(L29016950473491561583216960L
I2
tp1102
F0.0
s(L24179696984089257133999360L
I3
tp1103
F8.100000000000001
s(L19342813113974821463523328L
I3
tp1104
F3.6219597955787277
s(L19345174297181093397267712L
I3
tp1105
F1.2157665459056939
s(L26901450197620371397166437L
I5
tp1106
F5.314410000000002
s(L25692434522187694811384320L
I2
tp1107
F10.0
s(L25994562191617054066869664L
I1
tp1108
F10.0
s(L7254736085769283417670656L
I0
tp1109
F0.797664430768726
s(L24180878264655155829145600L
I5
tp1110
F1.2157665459056939
s(L31737402250328538457572352L
I4
tp1111
F5.314410000000002
s(L1180591730702933819392L
I3
tp1112
F1.8530201888518425
s(L9673177444418495448484096L
I0
tp1113
F3.4867844010000018
s(L29015769197253319287113728L
I2
tp1114
F0.797664430768726
s(L9673768424797970561499136L
I3
tp1115
F4.304672100000002
s(L24181274901292282884917248L
I5
tp1116
F2.824295364810002
s(L2361183241434822608128L
I0
tp1117
F3.4867844010000018
s(I576531146823958528
I1
tp1118
F8.100000000000001
s(L6651748339115057051862688L
I3
tp1119
F0.9847709021836121
s(L24179697560532424356529408L
I2
tp1120
F8.100000000000001
s(L19345469895455035873035520L
I2
tp1121
F10.0
s(L10883284288034594930132224L
I0
tp1122
F3.4867844010000018
s(L19345174585446653912679424L
I5
tp1123
F2.2876792454961015
s(L19342813690453165952991232L
I4
tp1124
F0.9847709021836121
s(L7861043778158306274118240L
I2
tp1125
F0.0
s(L11487857920519918875903568L
I1
tp1126
F8.100000000000001
s(L12091121317368122345915968L
I5
tp1127
F6.561000000000002
s(L4837179594557361054810112L
I1
tp1128
F4.304672100000002
s(L2656619377012885162624L
I5
tp1129
F2.824295364810002
s(L7256606242768185890702992L
I0
tp1130
F8.100000000000001
s(L30679260441007401129870592L
I5
tp1131
F0.0
s(L12694902093891130689062548L
I0
tp1132
F3.4867844010000018
s(L2361183311803566785536L
I0
tp1133
F2.2876792454961015
s(L11487156920038275546090064L
I0
tp1134
F3.4867844010000018
s(L27095168459817836641257472L
I5
tp1135
F0.0
s(L2952055582936050697792L
I3
tp1136
F3.4867844010000018
s(L6746371345195513067865766L
I1
tp1137
F4.304672100000002
s(L30678854315512369713142372L
I4
tp1138
F0.0
s(I70368748374016
I3
tp1139
F2.2876792454961015
s(L26597955100216366151502442L
I5
tp1140
F3.4867844010000018
s(L6046548135917585455645696L
I6
tp1141
F3.4867844010000018
s(L19342813113834066803688448L
I1
tp1142
F9.407008630768729
s(L6044629458361116073658368L
I6
tp1143
F5.314410000000002
s(L19345765047912178872484864L
I5
tp1144
F8.100000000000001
s(L24181615445296983882858496L
I5
tp1145
F6.561000000000002
s(L11486688671795366484772240L
I0
tp1146
F2.824295364810002
s(I70394524008448
I1
tp1147
F0.797664430768726
s(L31434820307263308606736000L
I0
tp1148
F3.4867844010000018
s(L32189301607570351272101536L
I6
tp1149
F10.0
s(L7255916100999621570267136L
I1
tp1150
F10.0
s(L11336041192668900344879716L
I3
tp1151
F6.561000000000002
s(I576531121047602176
I3
tp1152
F0.6461081889226681
s(L4836884302565553016407040L
I6
tp1153
F5.314410000000002
s(L19345175044743425690962336L
I0
tp1154
F2.824295364810002
s(L12091914815681611753850368L
I5
tp1155
F0.6461081889226681
s(L30827608857686446531675744L
I6
tp1156
F1.5009463529699922
s(L6727472511776809556117158L
I4
tp1157
F2.824295364810002
s(L4838064461699951530869760L
I6
tp1158
F1.2157665459056939
s(L29015843632853524752105472L
I5
tp1159
F4.304672100000002
s(L11487858094465946184844288L
I0
tp1160
F10.0
s(L24180877575534044093417728L
I2
tp1161
F2.2876792454961015
s(L26598729647179209637888000L
I6
tp1162
F5.314410000000002
s(L12090439075997423971600720L
I0
tp1163
F5.314410000000002
s(L6727453776793561051694758L
I6
tp1164
F1.5009463529699922
s(L12770948760421926315231844L
I0
tp1165
F8.100000000000001
s(L1918911840426635035648L
I1
tp1166
F2.824295364810002
s(L4838360186065900365939712L
I2
tp1167
F4.304672100000002
s(L9671406845252984151212032L
I1
tp1168
F1.5009463529699922
s(L9672587148643303929415168L
I5
tp1169
F0.6461081889226681
s(I158346854268928
I3
tp1170
F4.304672100000002
s(L27023300125058084178757990L
I2
tp1171
F4.304672100000002
s(I576460769483293696
I0
tp1172
F2.2876792454961015
s(L27079525873056747003840856L
I4
tp1173
F10.0
s(L6047285429219760055779328L
I6
tp1174
F1.2157665459056939
s(L26599430875673207700194560L
I6
tp1175
F6.561000000000002
s(L3025986674418964760128L
I5
tp1176
F4.304672100000002
s(L24181173300040704648020992L
I4
tp1177
F0.5233476330273611
s(L24181320756899731257428224L
I5
tp1178
F5.314410000000002
s(L30923531469538869743977984L
I1
tp1179
F1.8530201888518425
s(L11260483166732042022520384L
I6
tp1180
F8.100000000000001
s(L19344584451695508762658432L
I0
tp1181
F0.0
s(L29015880526341672171470848L
I5
tp1182
F5.314410000000002
s(L6652209963735237126261136L
I1
tp1183
F5.314410000000002
s(L19344584001265142912253952L
I5
tp1184
F3.4867844010000018
s(L19343994137970248754660352L
I2
tp1185
F1.5009463529699922
s(L12771050263718832957359764L
I1
tp1186
F10.0
s(L2361471647732840006656L
I1
tp1187
F4.304672100000002
s(L9674137323628696158341440L
I0
tp1188
F6.561000000000002
s(L25862808249540235752900262L
I1
tp1189
F0.0
s(L12543786258537628942304512L
I0
tp1190
F5.314410000000002
s(L2656907699752307525632L
I5
tp1191
F2.824295364810002
s(L7751045854505791747622464L
I3
tp1192
F10.0
s(L9673177444348126694474752L
I2
tp1193
F2.2876792454961015
s(L27023300125058083641624934L
I5
tp1194
F3.4867844010000018
s(L26107972756143011398942720L
I2
tp1195
F4.304672100000002
s(L9672587581024069715494144L
I2
tp1196
F4.304672100000002
s(L7952465733725659912996864L
I6
tp1197
F4.304672100000002
s(L4838770743307499759835712L
I5
tp1198
F6.561000000000002
s(L24179697560554407483933952L
I4
tp1199
F10.0
s(I396497121480540160
I3
tp1200
F3.4867844010000018
s(L27315644197204610130708880L
I3
tp1201
F6.561000000000002
s(L1180591691124810188800L
I2
tp1202
F6.561000000000002
s(L4835703278458516698824704L
I6
tp1203
F31.41682261248743
s(L12092320833212680538226688L
I1
tp1204
F10.0
s(L25389029394807460002957712L
I3
tp1205
F8.100000000000001
s(L9673768208691180621266944L
I2
tp1206
F2.824295364810002
s(L10882988707678276747789312L
I5
tp1207
F2.2876792454961015
s(L12090439076067795124879360L
I2
tp1208
F1.2157665459056939
s(L19343993705454784214990848L
I1
tp1209
F3.4867844010000018
s(L11485976454578793734636905L
I5
tp1210
F6.561000000000002
s(L6724650520212682062694912L
I3
tp1211
F3.4867844010000018
s(L29014219959122213837211136L
I3
tp1212
F2.2876792454961015
s(L7255916100929231345680384L
I2
tp1213
F5.314410000000002
s(L12770754997506203388479488L
I5
tp1214
F1.8530201888518425
s(L4837621739842203975417856L
I2
tp1215
F2.2876792454961015
s(L4838360294222677344256000L
I3
tp1216
F0.6461081889226681
s(L25390541553257442230929408L
I0
tp1217
F5.314410000000002
s(L24179696983913335273555456L
I0
tp1218
F6.561000000000002
s(L7254735941829995738432848L
I0
tp1219
F10.0
s(L30225507250067933679061504L
I4
tp1220
F0.0
s(L19342813690294844872720384L
I2
tp1221
F1.2157665459056939
s(L30602533231219411928897896L
I0
tp1222
F5.314410000000002
s(L6500338112329174098116608L
I4
tp1223
F6.561000000000002
s(L4837179594613436566210048L
I2
tp1224
F2.2876792454961015
s(L12090734692386898547049472L
I5
tp1225
F0.0
s(L25388623452187056868950016L
I3
tp1226
F10.0
s(L9673178187610290495947776L
I3
tp1227
F5.314410000000002
s(L9673768028476805306386432L
I1
tp1228
F5.314410000000002
s(L27353718222815218822972816L
I6
tp1229
F2.824295364810002
s(L1918911840426632676352L
I2
tp1230
F2.2876792454961015
s(L10882269284771569451047168L
I1
tp1231
F8.100000000000001
s(L4835703278616873225158656L
I2
tp1232
F5.314410000000002
s(L9673768141078108940010496L
I3
tp1233
F6.561000000000002
s(L31737254622352561638737152L
I1
tp1234
F4.304672100000002
s(L7558913474200428497930560L
I0
tp1235
F3.4867844010000018
s(L7253554917854928019916800L
I2
tp1236
F10.0
s(L12800435916902002106934937L
I3
tp1237
F5.314410000000002
s(L6047457908148692193905152L
I5
tp1238
F1.5009463529699922
s(I70403103917056
I3
tp1239
F2.2876792454961015
s(L10883284288034594930099200L
I6
tp1240
F2.824295364810002
s(L1180591761454903855360L
I0
tp1241
F3.4867844010000018
s(L10881955690115719317424384L
I2
tp1242
F8.100000000000001
s(L2361639347720213760256L
I3
tp1243
F1.8530201888518425
s(L19345174747598220539462656L
I2
tp1244
F6.561000000000002
s(L9671407007276996138893312L
I4
tp1245
F0.9847709021836121
s(L6046271578942049515208704L
I6
tp1246
F6.561000000000002
s(L19342813690294819102918144L
I4
tp1247
F0.9847709021836121
s(L12564548169083319732209002L
I4
tp1248
F5.314410000000002
s(L30928420613323557859493476L
I4
tp1249
F8.100000000000001
s(L24179992708463971995224680L
I0
tp1250
F1.8530201888518425
s(L29015400838902938651852800L
I4
tp1251
F1.8530201888518425
s(L4837179594603540542129152L
I6
tp1252
F1.2157665459056939
s(L7254735509471258835158656L
I5
tp1253
F0.6461081889226681
s(L4838064749930344861401088L
I4
tp1254
F0.6461081889226681
s(L24179697560374087576979008L
I4
tp1255
F8.100000000000001
s(L7557557260114891068672640L
I6
tp1256
F0.0
s(L12090438787767009162560512L
I5
tp1257
F0.9847709021836121
s(L7634192312904517063173520L
I0
tp1258
F8.100000000000001
s(L19342813690294836286981120L
I1
tp1259
F1.5009463529699922
s(L11581117653742831861500520L
I3
tp1260
F10.0
s(L30224769265070197776467584L
I5
tp1261
F8.100000000000001
s(L2656619486967263922688L
I1
tp1262
F10.0
s(L6046990281384949440317056L
I6
tp1263
F0.42391158275216256
s(L26111735855861262073858624L
I5
tp1264
F0.0
s(L26598010152190730118892186L
I0
tp1265
F0.0
s(L9672587148537772290082816L
I5
tp1266
F5.314410000000002
s(L24179697560462059778344960L
I2
tp1267
F10.0
s(L27051190953543962036537344L
I3
tp1268
F1.8530201888518425
s(L7709753965848487715820901L
I1
tp1269
F0.0
s(L19344584407715036135950336L
I1
tp1270
F4.304672100000002
s(L9671406557075380257850729L
I0
tp1271
F4.304672100000002
s(L6047581225731281042933248L
I3
tp1272
F3.4867844010000018
s(L7977969312223844960175766L
I4
tp1273
F10.0
s(I1024
I0
tp1274
F15.580815637231005
s(L19342813690400406574728448L
I3
tp1275
F3.4867844010000018
s(L19345174297181054738366464L
I3
tp1276
F3.5034457914017954
s(L19345765341697286153308576L
I1
tp1277
F5.314410000000002
s(L30716116963653075723093604L
I3
tp1278
F6.561000000000002
s(L7680510105691702716402022L
I2
tp1279
F0.0
s(L9674137359657494251047232L
I2
tp1280
F8.100000000000001
s(L10881931046477931975608656L
I2
tp1281
F8.100000000000001
s(L4838065110288693460566016L
I4
tp1282
F1.5009463529699922
s(L27320782408043513245992598L
I1
tp1283
F0.0
s(L27277980521464824436099690L
I2
tp1284
F8.100000000000001
s(L7861043769155515453539328L
I0
tp1285
F5.314410000000002
s(L11354518038732154792576576L
I0
tp1286
F3.4867844010000018
s(L7253555368188502122433024L
I1
tp1287
F3.4867844010000018
s(L2361831847767873422848L
I1
tp1288
F1.5009463529699922
s(L1181330378199253648384L
I4
tp1289
F3.4867844010000018
s(L4835703278599271367049216L
I2
tp1290
F0.9847709021836121
s(L12393260916924158197106176L
I6
tp1291
F8.100000000000001
s(L2656979735367921961216L
I0
tp1292
F4.304672100000002
s(L19345174585415869742974336L
I0
tp1293
F1.8530201888518425
s(L26111618250593433517922662L
I3
tp1294
F10.0
s(L9671407133470144688555008L
I1
tp1295
F2.2876792454961015
s(L19342813690457574741114880L
I2
tp1296
F1.5009463529699922
s(L12770902643561467146668608L
I3
tp1297
F4.304672100000002
s(L9672587148608136742832128L
I5
tp1298
F2.824295364810002
s(L3025266028127021171968L
I2
tp1299
F5.314410000000002
s(L19344584001405880400610304L
I3
tp1300
F4.304672100000002
s(L9671406845147426729230336L
I2
tp1301
F2.2876792454961015
s(L10882694010133094497405540L
I0
tp1302
F3.4867844010000018
s(L1180879851093571406080L
I0
tp1303
F2.824295364810002
s(L1180591787860368031744L
I1
tp1304
F6.561000000000002
s(L27023152551105493964163430L
I0
tp1305
F2.824295364810002
s(I288371113646620672
I1
tp1306
F0.9847709021836121
s(L4836883870079234110130176L
I5
tp1307
F2.824295364810002
s(L4838065038160703830097920L
I1
tp1308
F0.34336838202925174
s(L9673768100534442289792000L
I3
tp1309
F2.824295364810002
s(L4835703855029220165025792L
I3
tp1310
F1.5009463529699922
s(L29015815602343879712852224L
I5
tp1311
F1.5009463529699922
s(L24180287856184446282630400L
I5
tp1312
F0.6461081889226681
s(L11484795664782083347185664L
I4
tp1313
F6.561000000000002
s(L11562228160719386772245056L
I1
tp1314
F5.314410000000002
s(L10882103552290988565203560L
I4
tp1315
F10.0
s(L24180877575534052682761216L
I1
tp1316
F4.304672100000002
s(L29014219959087029460928000L
I0
tp1317
F0.34336838202925174
s(L4835703278458516705116160L
I6
tp1318
F0.797664430768726
s(I360428742041927680
I1
tp1319
F2.2876792454961015
s(L9673768141078108940076544L
I1
tp1320
F8.100000000000001
s(L7255031353188428638324324L
I0
tp1321
F6.561000000000002
s(L24178516968753335803838464L
I4
tp1322
F1.2157665459056939
s(L25689674099262028119015424L
I4
tp1323
F0.0
s(L4838064930144681512142400L
I3
tp1324
F3.4867844010000018
s(L12092284146831491822338048L
I1
tp1325
F0.0
s(L26599467543963783174620416L
I2
tp1326
F0.0
s(L9673768028476805307435520L
I1
tp1327
F6.561000000000002
s(L26598260408197244543042968L
I3
tp1328
F6.561000000000002
s(L27200831589847543578625600L
I2
tp1329
F3.4867844010000018
s(L10881512968257933106218496L
I6
tp1330
F0.797664430768726
s(L30904642003600794091259392L
I0
tp1331
F1.2157665459056939
s(L24181468519933113589041664L
I5
tp1332
F2.2876792454961015
s(L4838064894045515749000192L
I0
tp1333
F2.2876792454961015
s(L9671406556917054876682240L
I1
tp1334
F4.304672100000002
s(L4835703566829630338891776L
I4
tp1335
F2.2876792454961015
s(I360428707682191360
I4
tp1336
F0.34336838202925174
s(L31737402106213350380667904L
I1
tp1337
F4.304672100000002
s(L4838064461875897412094208L
I1
tp1338
F1.8530201888518425
s(L10880332952992432055649280L
I6
tp1339
F2.824295364810002
s(L7558915780043506431121768L
I3
tp1340
F6.561000000000002
s(L1918461559626314287444L
I0
tp1341
F10.0
s(L7256506684969967553611776L
I2
tp1342
F10.0
s(L4838551355045686995846400L
I6
tp1343
F2.824295364810002
s(L12091102870553679891530752L
I5
tp1344
F3.4867844010000018
s(L26598014979961585502783104L
I6
tp1345
F4.304672100000002
s(L19345617307304384293504000L
I1
tp1346
F1.2157665459056939
s(L10882989396729036915344896L
I4
tp1347
F4.304672100000002
s(L24180878025894024008697856L
I2
tp1348
F2.2876792454961015
s(L1180591732901961269248L
I1
tp1349
F2.2876792454961015
s(L25387442662337544160545280L
I0
tp1350
F5.314410000000002
s(L11585607499489491064194661L
I0
tp1351
F0.0
s(L6046990929944554925721958L
I4
tp1352
F8.100000000000001
s(L6046990281314580696137728L
I6
tp1353
F2.2876792454961015
s(L26599098726105530011060480L
I1
tp1354
F4.304672100000002
s(L6046105288143740516435968L
I2
tp1355
F8.100000000000001
s(L12542605955054888971927552L
I3
tp1356
F5.314410000000002
s(L3026014839514733107624L
I5
tp1357
F0.0
s(L27011936858615899073022304L
I6
tp1358
F1.2157665459056939
s(L24180878008020358687360000L
I4
tp1359
F2.824295364810002
s(L1180951908687611431264L
I4
tp1360
F4.304672100000002
s(L4838064822128693564409856L
I1
tp1361
F0.5233476330273611
s(L4838065155346680235268608L
I1
tp1362
F3.4867844010000018
s(L24178517081413721006276608L
I2
tp1363
F0.9847709021836121
s(L12393851122592154537428320L
I6
tp1364
F0.9847709021836121
s(L25387442500278364971993088L
I1
tp1365
F10.0
s(L7959549355507695857698816L
I6
tp1366
F6.561000000000002
s(L7558885804084040371341568L
I3
tp1367
F1.8530201888518425
s(L30226194272671585454629888L
I3
tp1368
F0.0
s(L25390099263770504718450688L
I4
tp1369
F2.2876792454961015
s(L11363962915814528019400288L
I3
tp1370
F10.0
s(L6425370580400929336878592L
I6
tp1371
F10.0
s(L29015400262442186352626176L
I0
tp1372
F2.824295364810002
s(L6500338040271577912705024L
I1
tp1373
F5.314410000000002
s(L7972831101384941912000920L
I2
tp1374
F0.0
s(L19342813113904461309282304L
I0
tp1375
F0.5233476330273611
s(L7861043760148316198797312L
I1
tp1376
F4.304672100000002
s(L6044629674604266927425536L
I6
tp1377
F1.8530201888518425
s(L4835703710804106696196096L
I6
tp1378
F1.5009463529699922
s(L12696082577605754401063936L
I1
tp1379
F8.100000000000001
s(L7977958845858310782977686L
I4
tp1380
F4.304672100000002
s(L25387442644252776904787968L
I4
tp1381
F3.4867844010000018
s(I17189570560
I1
tp1382
F1.8530201888518425
s(L7633705798001913455708416L
I0
tp1383
F2.824295364810002
s(L3053296531421519678056L
I2
tp1384
F6.561000000000002
s(L29014220391397432942919680L
I6
tp1385
F0.0
s(L31005287896604835692766820L
I5
tp1386
F6.561000000000002
s(L1770887431076116956160L
I0
tp1387
F1.8530201888518425
s(L6349665178792702073454592L
I2
tp1388
F2.824295364810002
s(L9673343465115158834448640L
I5
tp1389
F4.304672100000002
s(L9673177732578508221188608L
I2
tp1390
F8.100000000000001
s(L7254735941829995737908544L
I0
tp1391
F8.100000000000001
s(L26599098892879453980567904L
I3
tp1392
F10.0
s(L10883283855671442804834304L
I6
tp1393
F4.304672100000002
s(L25390541553256342719299584L
I1
tp1394
F4.304672100000002
s(L9672587436768126964860928L
I4
tp1395
F2.2876792454961015
s(L24180878151994792101283840L
I4
tp1396
F1.5009463529699922
s(L31433695298998823453853184L
I1
tp1397
F3.4867844010000018
s(L12391489939456286791140352L
I4
tp1398
F3.4867844010000018
s(L19344363397050946968094720L
I4
tp1399
F1.5009463529699922
s(L25389803395219061876262400L
I2
tp1400
F10.0
s(L25993381437701193514715488L
I1
tp1401
F1.2157665459056939
s(L6044629530418744470276352L
I0
tp1402
F4.304672100000002
s(L29014220355368652025890304L
I0
tp1403
F1.8530201888518425
s(L12394294240789783003960936L
I3
tp1404
F10.0
s(L26107991231069768225393152L
I3
tp1405
F10.0
s(L19345174873712192965838080L
I3
tp1406
F6.561000000000002
s(L10882214232763110222988672L
I4
tp1407
F1.2157665459056939
s(L19345174297075540272612352L
I5
tp1408
F0.797664430768726
s(L26901450199309221257430373L
I4
tp1409
F6.561000000000002
s(L25692434517683476171852288L
I1
tp1410
F6.561000000000002
s(L12394589136494756204381440L
I0
tp1411
F0.0
s(L31907363588795580717286762L
I3
tp1412
F0.0
s(L4835703278616863561482240L
I3
tp1413
F4.304672100000002
s(L12800435880872930210064025L
I5
tp1414
F4.304672100000002
s(L6755817231084955988498086L
I1
tp1415
F8.100000000000001
s(L11336447327190926520616192L
I3
tp1416
F10.0
s(L6746371201080324991747750L
I6
tp1417
F3.4867844010000018
s(L6519995135706168957077158L
I4
tp1418
F8.100000000000001
s(L9674063464619602132436560L
I0
tp1419
F8.100000000000001
s(L12391489651190726267241472L
I1
tp1420
F2.2876792454961015
s(L19345174873716591014446336L
I1
tp1421
F8.100000000000001
s(L24180139705911846084674560L
I5
tp1422
F5.314410000000002
s(L4835703566688892850538496L
I4
tp1423
F1.8530201888518425
s(L26596368031688994798438400L
I0
tp1424
F0.0
s(L10882694136233872793273344L
I6
tp1425
F2.2876792454961015
s(L29016581142328504011980800L
I6
tp1426
F4.304672100000002
s(L27203856892001169162439264L
I3
tp1427
F10.0
s(L12090439184083793546840320L
I0
tp1428
F5.314410000000002
s(L12090439075997385316370752L
I0
tp1429
F3.4867844010000018
s(L19342813690435556592322048L
I0
tp1430
F6.561000000000002
s(L32039190551004694710584320L
I6
tp1431
F5.314410000000002
s(L29016876722568857003591248L
I4
tp1432
F0.0
s(L6046548298047172040983552L
I4
tp1433
F4.304672100000002
s(L25993778213941134401996032L
I4
tp1434
F8.100000000000001
s(L12581565262458180141942160L
I4
tp1435
F8.100000000000001
s(L31737061012595790260274856L
I0
tp1436
F10.0
s(L29016876434348871440662528L
I4
tp1437
F5.314410000000002
s(L27202422621709699166243434L
I6
tp1438
F4.304672100000002
s(L12090439220200560095985664L
I5
tp1439
F10.0
s(L30224917062449541689640448L
I5
tp1440
F2.824295364810002
s(L7254736202933244228011008L
I3
tp1441
F2.2876792454961015
s(L2361638210550312732928L
I1
tp1442
F1.2157665459056939
s(L12091619667776432401024000L
I3
tp1443
F0.5233476330273611
s(L6047461146335282104632934L
I6
tp1444
F0.0
s(L30928419856718402775680512L
I1
tp1445
F2.824295364810002
s(L6047728151077546263838720L
I6
tp1446
F0.0
s(L11637804471304823529342352L
I1
tp1447
F4.304672100000002
s(L31915302938381563085194912L
I0
tp1448
F0.0
s(L11487821026468821503312896L
I5
tp1449
F4.304672100000002
s(L30903166264039712955040768L
I1
tp1450
F0.797664430768726
s(L2841159057867775411456L
I1
tp1451
F1.5009463529699922
s(L32038185880118521551521440L
I5
tp1452
F8.100000000000001
s(L4838064939169511611826176L
I3
tp1453
F0.0
s(L29016987150850907082588160L
I5
tp1454
F10.0
s(L7933576267793906453708800L
I6
tp1455
F2.824295364810002
s(L1180591620734599561216L
I5
tp1456
F1.5009463529699922
s(L30720839339143144623048292L
I4
tp1457
F8.100000000000001
s(L29016138708683479224157696L
I5
tp1458
F2.824295364810002
s(L27353423146985224620344896L
I6
tp1459
F4.304672100000002
s(L4837179018096608750338048L
I6
tp1460
F3.4867844010000018
s(L24181173300040708943119360L
I1
tp1461
F0.6461081889226681
s(L29014219959095842733819392L
I3
tp1462
F0.42391158275216256
s(L6349665196807100582938624L
I4
tp1463
F3.4867844010000018
s(L10880332664859939282356224L
I2
tp1464
F1.5009463529699922
s(L7631344596605342635264000L
I4
tp1465
F1.8530201888518425
s(L19345174729533669579425176L
I0
tp1466
F5.314410000000002
s(L4838065146317490747965440L
I2
tp1467
F1.8530201888518425
s(L9673768388769201733502560L
I3
tp1468
F2.824295364810002
s(L1918893817229614253056L
I2
tp1469
F1.5009463529699922
s(L10882693559773114580076544L
I6
tp1470
F6.561000000000002
s(L24181173173975123344491520L
I3
tp1471
F6.561000000000002
s(L24181173182947141581015040L
I4
tp1472
F4.304672100000002
s(L10881512968152414347591680L
I6
tp1473
F4.304672100000002
s(L26596368680040222544627264L
I6
tp1474
F2.2876792454961015
s(L1180879991831051370496L
I5
tp1475
F1.2157665459056939
s(L24180163340661957335451136L
I2
tp1476
F2.824295364810002
s(I450500734591762432
I1
tp1477
F1.5009463529699922
s(L24178516968894073292455936L
I3
tp1478
F1.5009463529699922
s(L11562124613956762858749952L
I1
tp1479
F10.0
s(L9672587436908864459769088L
I1
tp1480
F3.4867844010000018
s(L19345174585305912133550080L
I5
tp1481
F1.2157665459056939
s(L9673768141066838945563648L
I4
tp1482
F4.304672100000002
s(L12770755069598981865605632L
I2
tp1483
F2.824295364810002
s(L4835703278458551058564096L
I6
tp1484
F0.27812838944369395
s(L19344436859772466679351680L
I1
tp1485
F0.0
s(L19343994137970222984856576L
I3
tp1486
F1.2157665459056939
s(L25691518629448651439606368L
I0
tp1487
F0.0
s(L2656907787703571973376L
I5
tp1488
F0.0
s(L4837474616319958666184320L
I6
tp1489
F10.0
s(L9674450990335527145703008L
I2
tp1490
F6.561000000000002
s(L9671406845235409144350208L
I2
tp1491
F3.4867844010000018
s(L9671406953233817786122240L
I2
tp1492
F3.4867844010000018
s(L4835703278599271371245568L
I1
tp1493
F1.2157665459056939
s(L25390541661343833287887360L
I0
tp1494
F8.100000000000001
s(L25387442666841143788440064L
I1
tp1495
F6.561000000000002
s(L19342813402064442955399168L
I1
tp1496
F3.5034457914017954
s(L9672587436908864457409792L
I5
tp1497
F2.824295364810002
s(L4836883870079234118516736L
I5
tp1498
F2.824295364810002
s(L7935937559192125119400342L
I6
tp1499
F8.100000000000001
s(L12580384886918980005004672L
I3
tp1500
F10.0
s(L11260926176721216122914048L
I0
tp1501
F6.561000000000002
s(L29015400694887350871786496L
I6
tp1502
F1.8530201888518425
s(L10882177051044586652173696L
I5
tp1503
F0.9847709021836121
s(L10883164641994016548718080L
I3
tp1504
F10.0
s(L12695307886396309724793232L
I0
tp1505
F6.561000000000002
s(L32039264337980989548791296L
I0
tp1506
F6.561000000000002
s(L11680305787665323723695504L
I4
tp1507
F8.100000000000001
s(L4835703638887258740754432L
I6
tp1508
F0.42391158275216256
s(L19342813113834066799495552L
I0
tp1509
F2.2876792454961015
s(L27202307365586955585193552L
I3
tp1510
F10.0
s(L19342813564264424056815616L
I1
tp1511
F3.4867844010000018
s(L6538584023493045403585168L
I0
tp1512
F4.304672100000002
s(L24180878007879621199003648L
I4
tp1513
F5.314410000000002
s(L7860674447039240095399936L
I4
tp1514
F5.314410000000002
s(L9671406845217778293538816L
I3
tp1515
F0.6461081889226681
s(L10882989284139046231081984L
I5
tp1516
F3.4867844010000018
s(L25389803851208478517889536L
I5
tp1517
F8.100000000000001
s(L10883063215230535060685824L
I5
tp1518
F3.4867844010000018
s(L25389096190512549809097280L
I3
tp1519
F5.314410000000002
s(L9674358324304777679537152L
I0
tp1520
F2.2876792454961015
s(L19342813113948450368521216L
I3
tp1521
F4.304672100000002
s(L6046990929903330150843904L
I4
tp1522
F2.2876792454961015
s(L27200831626052262727517776L
I3
tp1523
F6.561000000000002
s(L26596368031521841843535872L
I6
tp1524
F0.9894765709519198
s(L25993556780849085557606758L
I4
tp1525
F2.824295364810002
s(L2845770744161083327744L
I5
tp1526
F2.2876792454961015
s(L4838655406127634089771008L
I6
tp1527
F1.8530201888518425
s(L19343994137941085922525184L
I4
tp1528
F0.6461081889226681
s(L7558147988345584275687424L
I2
tp1529
F3.4867844010000018
s(L9672587535917713287547240L
I3
tp1530
F10.0
s(L4838360186158269008448064L
I6
tp1531
F4.304672100000002
s(L6349222186718972580203104L
I4
tp1532
F8.100000000000001
s(L12695270992908162305099776L
I5
tp1533
F3.4867844010000018
s(L19345175017721827926477184L
I0
tp1534
F1.8530201888518425
s(L9671406845147409553555456L
I4
tp1535
F0.797664430768726
s(L19342813113834066802115584L
I1
tp1536
F2.2876792454961015
s(L7558147988288382554867200L
I3
tp1537
F0.0
s(L27202012217672980139345488L
I1
tp1538
F8.100000000000001
s(L2951767370147790064192L
I0
tp1539
F2.2876792454961015
s(L25389096192201399669361216L
I4
tp1540
F6.561000000000002
s(L12393450072569240761927312L
I0
tp1541
F10.0
s(I70395587725312
I3
tp1542
F1.2157665459056939
s(L4837345399109812721027728L
I2
tp1543
F5.314410000000002
s(L30224768803958582205745408L
I3
tp1544
F0.0
s(L24179696984054072761910272L
I2
tp1545
F6.561000000000002
s(L2361639345246312597760L
I4
tp1546
F1.5009463529699922
s(L27202722417259675533706240L
I5
tp1547
F6.561000000000002
s(L4838064912165488860595200L
I2
tp1548
F3.4867844010000018
s(L2361183241434827849728L
I1
tp1549
F4.304672100000002
s(L10883136970681626595952128L
I1
tp1550
F5.314410000000002
s(L1642336683312453517312L
I5
tp1551
F3.4867844010000018
s(L4836884158309610270230528L
I4
tp1552
F3.4867844010000018
s(L1180879921496675319808L
I5
tp1553
F4.304672100000002
s(L7933576150746522473990752L
I6
tp1554
F6.561000000000002
s(L19344584289495536252225536L
I0
tp1555
F1.8530201888518425
s(L31737061012595790260209312L
I5
tp1556
F8.100000000000001
s(L19343994281985905262592000L
I1
tp1557
F0.6461081889226681
s(L19342813113904480641875968L
I2
tp1558
F8.100000000000001
s(L11363962915814459299923520L
I3
tp1559
F8.100000000000001
s(L2361633742173709336576L
I2
tp1560
F1.8530201888518425
s(L27353423155992425217263200L
I0
tp1561
F6.561000000000002
s(L2361759790148056253440L
I3
tp1562
F0.797664430768726
s(L25994635960554114144010240L
I6
tp1563
F2.824295364810002
s(L11485976238247664760653824L
I5
tp1564
F1.5009463529699922
s(L27023323219525769494923622L
I4
tp1565
F8.100000000000001
s(L26599098870220718086916416L
I4
tp1566
F5.314410000000002
s(L29014219958981476344659968L
I6
tp1567
F4.5299560954493945
s(I576531162118226944
I2
tp1568
F1.8530201888518425
s(L9674358036056805040193536L
I1
tp1569
F3.4867844010000018
s(L9674450990335526071961152L
I5
tp1570
F5.314410000000002
s(L32038158209932042243016320L
I6
tp1571
F5.314410000000002
s(L27051191530039941665917264L
I4
tp1572
F4.304672100000002
s(L26901440974248334508836192L
I3
tp1573
F3.4867844010000018
s(L9674063320497189916510720L
I2
tp1574
F10.0
s(L2361183311830418721088L
I0
tp1575
F1.8530201888518425
s(L30678264244805027630155264L
I6
tp1576
F3.4867844010000018
s(L24180877575534052676469760L
I2
tp1577
F3.4867844010000018
s(L19342813690365222202639360L
I4
tp1578
F2.824295364810002
s(L24180287279864435763578368L
I0
tp1579
F8.100000000000001
s(L4837179594557910810886144L
I1
tp1580
F5.314410000000002
s(L30525377233499797181169664L
I2
tp1581
F6.561000000000002
s(L12770459966624244267222676L
I6
tp1582
F4.304672100000002
s(L19342813690435556587078912L
I4
tp1583
F4.304672100000002
s(L1918461559626313763152L
I0
tp1584
F8.100000000000001
s(L19345765341697286690195872L
I2
tp1585
F6.561000000000002
s(L10882694136233866883828224L
I1
tp1586
F10.0
s(L9674137359675086973962560L
I3
tp1587
F10.0
s(L24181542379006597762385152L
I4
tp1588
F6.561000000000002
s(L24179697560444464906897408L
I2
tp1589
F6.561000000000002
s(L4835703566794480326541312L
I6
tp1590
F4.304672100000002
s(L27372681475751992532313493L
I2
tp1591
F10.0
s(L27277980521464822825486954L
I3
tp1592
F6.561000000000002
s(L2361183241452007720960L
I2
tp1593
F5.314410000000002
s(L19343993705595521694957568L
I3
tp1594
F5.837757633027364
s(L19344704337447227399603584L
I5
tp1595
F3.4867844010000018
s(L32039190911222296154736640L
I6
tp1596
F8.100000000000001
s(L11487451905898508972459392L
I2
tp1597
F8.100000000000001
s(L2361633742173709370368L
I0
tp1598
F2.2876792454961015
s(L29015695410277023811373056L
I0
tp1599
F0.5233476330273611
s(L19344584433610748218835968L
I4
tp1600
F1.5009463529699922
s(L7254735941746460770436704L
I5
tp1601
F10.0
s(L4835703854989637746425856L
I3
tp1602
F1.2157665459056939
s(L4838360258215863046376032L
I4
tp1603
F5.314410000000002
s(I105570305572864
I1
tp1604
F3.4867844010000018
s(L29015400262442186348431360L
I6
tp1605
F2.2876792454961015
s(L10882989284139052146623488L
I5
tp1606
F2.824295364810002
s(L10882989164864034524366848L
I5
tp1607
F0.0
s(L11562714716253032128970752L
I4
tp1608
F10.0
s(I140754674516992
I0
tp1609
F1.8530201888518425
s(L30678116447425683716982400L
I6
tp1610
F10.0
s(L26598139495413704633091328L
I6
tp1611
F0.797664430768726
s(L19345174729533669159994768L
I3
tp1612
F3.4867844010000018
s(L9673325761562884467328000L
I2
tp1613
F6.561000000000002
s(L10881992583586302464887360L
I1
tp1614
F0.0
s(L27391618229495965949101312L
I6
tp1615
F10.0
s(L7751765014144614121080832L
I6
tp1616
F6.561000000000002
s(L27021381663674417847208288L
I3
tp1617
F1.8530201888518425
s(L12090439436399721894381568L
I2
tp1618
F6.561000000000002
s(L6046990857886960887794020L
I0
tp1619
F6.561000000000002
s(L1180591691086155483136L
I5
tp1620
F3.4867844010000018
s(L6346860985463139248114272L
I1
tp1621
F6.561000000000002
s(L19344704337447227399603608L
I0
tp1622
F4.304672100000002
s(L10880332826891659674798592L
I1
tp1623
F2.2876792454961015
s(L10883358075010891915822336L
I5
tp1624
F4.304672100000002
s(L6349959606086782443062272L
I6
tp1625
F6.561000000000002
s(L4838821066525327883241088L
I5
tp1626
F1.5009463529699922
s(L6755345726734348274239744L
I3
tp1627
F6.561000000000002
s(L32038401952695530745890368L
I6
tp1628
F0.0
s(L11563378871054443216898644L
I6
tp1629
F8.100000000000001
s(L7254736193855676229092352L
I1
tp1630
F1.8530201888518425
s(L19344584001265164397576192L
I5
tp1631
F2.824295364810002
s(L2951767370147790063616L
I3
tp1632
F1.8530201888518425
s(L27353718222841607102039440L
I3
tp1633
F3.4867844010000018
s(L4838771896229004400237120L
I5
tp1634
F8.100000000000001
s(L11185220739042703533147136L
I6
tp1635
F4.304672100000002
s(L4837179306355552872827392L
I6
tp1636
F2.2876792454961015
s(L19343993705454818574730240L
I1
tp1637
F0.9847709021836121
s(L25993750516697872956654592L
I6
tp1638
F3.4867844010000018
s(L11354517462271402489153024L
I2
tp1639
F2.824295364810002
s(L6349702090295248002042112L
I0
tp1640
F4.304672100000002
s(L4836883870259588385211648L
I3
tp1641
F0.0
s(L26098453988473603012299136L
I0
tp1642
F0.0
s(L2804193470334671782912L
I2
tp1643
F0.5233476330273611
s(L11675626853957451520410880L
I5
tp1644
F8.100000000000001
s(L31924378376292246937240984L
I0
tp1645
F0.0
s(I105574599491584
I2
tp1646
F0.9847709021836121
s(L9671407007276996140206592L
I1
tp1647
F1.5009463529699922
s(L6349812680643734429632000L
I6
tp1648
F4.304672100000002
s(L4835703710874449670572032L
I6
tp1649
F0.9847709021836121
s(L26597843771223686243682304L
I3
tp1650
F1.8530201888518425
s(L9671407133472360891679744L
I2
tp1651
F2.824295364810002
s(L7254735509473457858414224L
I0
tp1652
F0.797664430768726
s(L12090734223902605471910224L
I5
tp1653
F6.561000000000002
s(L26183854560645519231048352L
I0
tp1654
F10.0
s(L30645034532133697898305897L
I3
tp1655
F10.0
s(L32038158210002410987194016L
I0
tp1656
F6.561000000000002
s(L11662622356723358842316389L
I0
tp1657
F0.0
s(L6765085541153818523207680L
I3
tp1658
F10.0
s(L10880332376531662572356608L
I6
tp1659
F1.8530201888518425
s(L4838064461699968701300736L
I2
tp1660
F4.304672100000002
s(I288300744904278016
I4
tp1661
F1.2157665459056939
s(L7634192312904517063173376L
I6
tp1662
F6.561000000000002
s(L10883381158837519733072896L
I2
tp1663
F10.0
s(L12694901985968544318226432L
I4
tp1664
F1.8530201888518425
s(L1475739631449888786688L
I5
tp1665
F5.314410000000002
s(L19345174729583821493109760L
I5
tp1666
F5.314410000000002
s(I26843545600
I2
tp1667
F0.9847709021836121
s(L31432072030626689140655104L
I6
tp1668
F5.314410000000002
s(L10882269284769370427787520L
I3
tp1669
F6.561000000000002
s(L30224621691117608100038272L
I1
tp1670
F6.561000000000002
s(L6349989870265267154585254L
I6
tp1671
F5.314410000000002
s(L29017171834460005430001664L
I5
tp1672
F6.561000000000002
s(L24178516968858906102071296L
I3
tp1673
F0.9847709021836121
s(I360446334223777792
I4
tp1674
F2.2876792454961015
s(L6348705515614584644307520L
I0
tp1675
F8.100000000000001
s(L27315644215221207730555288L
I3
tp1676
F10.0
s(I288230376151714048
I0
tp1677
F0.5233476330273611
s(L7746323485753530102646336L
I5
tp1678
F6.561000000000002
s(L24179992708463967700257376L
I3
tp1679
F1.5009463529699922
s(L7634473652776620076390762L
I2
tp1680
F10.0
s(L6543306390020995159792276L
I3
tp1681
F10.0
s(L12545649451632304477701472L
I5
tp1682
F1.8530201888518425
s(L6727011527835756012767488L
I1
tp1683
F3.4867844010000018
s(L25994737169976663487284838L
I6
tp1684
F10.0
s(L19344584001265183714444288L
I2
tp1685
F0.9847709021836121
s(L6349689364178257984359040L
I6
tp1686
F2.2876792454961015
s(L26107991229908683946461696L
I4
tp1687
F8.100000000000001
s(L26597918314699167847000576L
I0
tp1688
F8.100000000000001
s(L6727011343078220122556416L
I6
tp1689
F3.4867844010000018
s(L4838360071338464448611584L
I0
tp1690
F6.561000000000002
s(L9673768028569164284167168L
I3
tp1691
F5.314410000000002
s(L1623745938399884020096L
I1
tp1692
F8.100000000000001
s(L9673177876764065041222144L
I3
tp1693
F10.0
s(L9674450990335527749682784L
I2
tp1694
F8.100000000000001
s(L19342813113834083981461504L
I1
tp1695
F1.2157665459056939
s(L9673177804636105474049536L
I4
tp1696
F4.304672100000002
s(L6044629530559447589453824L
I6
tp1697
F2.824295364810002
s(L12090734332158662769378304L
I5
tp1698
F10.0
s(L12800435921405739173258905L
I4
tp1699
F6.561000000000002
s(L12543786258537628942304656L
I0
tp1700
F6.561000000000002
s(L1549526642929090693120L
I5
tp1701
F1.2157665459056939
s(L24179697632572419103262272L
I3
tp1702
F10.0
s(L9671406557057770891773184L
I0
tp1703
F1.8530201888518425
s(L19344584001265164397840384L
I0
tp1704
F3.4867844010000018
s(L27200831589988281066980944L
I3
tp1705
F4.304672100000002
s(L1180591726270527572224L
I0
tp1706
F4.304672100000002
s(L7256580832333187277389824L
I5
tp1707
F2.2876792454961015
s(L1918911840424216757248L
I4
tp1708
F1.8530201888518425
s(L24181579128269612385305920L
I5
tp1709
F0.0
s(L19345617018933270651338752L
I5
tp1710
F0.797664430768726
s(L2361183241456305832960L
I0
tp1711
F1.2157665459056939
s(L24181274901292283958659584L
I0
tp1712
F3.4867844010000018
s(L7256654430129715842450688L
I1
tp1713
F8.100000000000001
s(I288300744895891456
I4
tp1714
F3.4867844010000018
s(L26596368608098068647117824L
I6
tp1715
F1.8530201888518425
s(L25389803395219059191580160L
I2
tp1716
F6.561000000000002
s(L7255123586908797188179558L
I5
tp1717
F10.0
s(L26596368607982594151153664L
I4
tp1718
F0.42391158275216256
s(L7253555584290923002986496L
I4
tp1719
F1.8530201888518425
s(L9671406845217816948244480L
I2
tp1720
F0.797664430768726
s(L25387442932648108250629120L
I2
tp1721
F2.824295364810002
s(L24181265677920246029092864L
I3
tp1722
F2.2876792454961015
s(L6422419137278657880392704L
I6
tp1723
F10.0
s(L10881513544613166652063744L
I1
tp1724
F5.314410000000002
s(L19345174585411471696463104L
I2
tp1725
F1.5009463529699922
s(L10882694010133094497405504L
I0
tp1726
F2.824295364810002
s(L25993778186884352265683968L
I5
tp1727
F5.314410000000002
s(L9673177822650503991920128L
I4
tp1728
F5.314410000000002
s(L4838064894045515749000768L
I0
tp1729
F2.824295364810002
s(L4838064461840713038956800L
I0
tp1730
F1.5009463529699922
s(L6346860985463104887327232L
I1
tp1731
F4.304672100000002
s(I450500700231958528
I4
tp1732
F1.2157665459056939
s(L11487821007328528885090900L
I4
tp1733
F6.561000000000002
s(L6046990281314597884395520L
I2
tp1734
F2.824295364810002
s(L4836883870219997378249728L
I0
tp1735
F4.304672100000002
s(L6348705515614584642210304L
I5
tp1736
F6.561000000000002
s(L4838064894151086053524480L
I0
tp1737
F2.2876792454961015
s(L30528328712692311016343104L
I5
tp1738
F5.314410000000002
s(L25995004652188431897593440L
I6
tp1739
F0.0
s(L9671406989350558555439104L
I3
tp1740
F0.797664430768726
s(I70403108110336
I1
tp1741
F1.8530201888518425
s(L19343993705454822868255744L
I1
tp1742
F3.4867844010000018
s(L11184925465212673651530340L
I6
tp1743
F5.314410000000002
s(L26069116952106858954983782L
I5
tp1744
F4.304672100000002
s(L7255031350936560105162304L
I0
tp1745
F4.304672100000002
s(L19342813113992422247891968L
I2
tp1746
F2.824295364810002
s(L4837179450330020640194560L
I5
tp1747
F6.561000000000002
s(L19344584361729060732141568L
I3
tp1748
F5.314410000000002
s(L30716116963644279630071392L
I0
tp1749
F5.314410000000002
s(L9673767740228854148497408L
I1
tp1750
F8.100000000000001
s(L6745900993767234594146560L
I6
tp1751
F4.304672100000002
s(L4835703278528911222865920L
I6
tp1752
F0.9847709021836121
s(L4838065155346680235264000L
I3
tp1753
F2.824295364810002
s(L26599209514832281494766912L
I3
tp1754
F2.2876792454961015
s(L6768332410188022374074944L
I6
tp1755
F6.561000000000002
s(L12770459966764982024013460L
I2
tp1756
F5.314410000000002
s(L19345174747505859953428480L
I5
tp1757
F5.314410000000002
s(L11487821026468821503313472L
I0
tp1758
F5.314410000000002
s(L24181173300075893312456704L
I3
tp1759
F1.5009463529699922
s(L6044629386303556384983040L
I6
tp1760
F2.2876792454961015
s(I576531159706501120
I2
tp1761
F2.2876792454961015
s(L26597548623230563143124480L
I0
tp1762
F1.5009463529699922
s(L26598016322034274727708320L
I4
tp1763
F10.0
s(L4838064822128697859901440L
I2
tp1764
F0.6461081889226681
s(L12770948760421926315231808L
I2
tp1765
F6.561000000000002
s(L9671406557057770891904320L
I0
tp1766
F2.2876792454961015
s(L6047728607183814469355776L
I6
tp1767
F2.824295364810002
s(L12393408567395074915436032L
I6
tp1768
F6.561000000000002
s(L24178516824778902396209560L
I0
tp1769
F5.314410000000002
s(L19345174585305877769617408L
I5
tp1770
F4.702550946905696
s(L19345175045869334187739552L
I2
tp1771
F3.4867844010000018
s(L4836883870149641509014016L
I6
tp1772
F8.100000000000001
s(L26598138919040902523783680L
I2
tp1773
F6.561000000000002
s(L6046990857886960887793984L
I6
tp1774
F5.314410000000002
s(L19343993705454784206604288L
I0
tp1775
F1.8530201888518425
s(L9671406845235404849350144L
I1
tp1776
F2.824295364810002
s(L12091177112491417621758976L
I3
tp1777
F5.314410000000002
s(L19342813690435556591272960L
I3
tp1778
F5.314410000000002
s(L7860674519099041746519040L
I4
tp1779
F8.100000000000001
s(L24180878007879616909281280L
I0
tp1780
F1.8530201888518425
s(L19345174297075518797774848L
I5
tp1781
F5.748444719691396
s(L6047728628547050514941536L
I6
tp1782
F8.100000000000001
s(L27079525728937160610941272L
I6
tp1783
F6.561000000000002
s(I576531121051795456
I3
tp1784
F5.314410000000002
s(L31434432493309754295190528L
I6
tp1785
F1.8530201888518425
s(L30904937727790829653983232L
I2
tp1786
F0.0
s(L26599430884680406955001088L
I4
tp1787
F8.100000000000001
s(L19344584289495559874544640L
I1
tp1788
F1.2157665459056939
s(L9673767740246429154672640L
I3
tp1789
F2.824295364810002
s(L30827608400173061134876672L
I6
tp1790
F0.5233476330273611
s(L31433252658315785989522432L
I4
tp1791
F8.100000000000001
s(L9672587148608119561520128L
I5
tp1792
F0.5233476330273611
s(L30928420577294760840529504L
I3
tp1793
F6.561000000000002
s(L6543306389975915048831632L
I6
tp1794
F5.314410000000002
s(L30526975362849160489752928L
I0
tp1795
F3.4867844010000018
s(L9671407133540513427228160L
I3
tp1796
F0.0
s(L29016876578538803764921600L
I6
tp1797
F10.0
s(L4837179378413146910755456L
I4
tp1798
F2.824295364810002
s(L9671407133448180221608960L
I0
tp1799
F10.0
s(L7256211248834406403538944L
I5
tp1800
F2.2876792454961015
s(L11487156920038275680307796L
I0
tp1801
F4.304672100000002
s(L9673768100534442299229184L
I1
tp1802
F3.4867844010000018
s(L7634473652776620009281896L
I6
tp1803
F8.100000000000001
s(L24178516392292583502512128L
I1
tp1804
F1.7161279605974986
s(L31435023167448904342963456L
I5
tp1805
F3.4867844010000018
s(L25389804115830168914034688L
I4
tp1806
F0.0
s(L11260926176721207532979200L
I6
tp1807
F5.314410000000002
s(L25389029394807461076707728L
I1
tp1808
F10.0
s(L9671406557004994327871488L
I3
tp1809
F3.4867844010000018
s(L27202602495293020358182288L
I1
tp1810
F1.8530201888518425
s(L7256506396827546692878336L
I3
tp1811
F8.100000000000001
s(L19343993705454818566340608L
I2
tp1812
F2.824295364810002
s(L4837345399109812444203664L
I5
tp1813
F4.304672100000002
s(L12817683627019687281297664L
I3
tp1814
F10.0
s(L26597918314699167779891200L
I4
tp1815
F6.561000000000002
s(L2656979735367921958912L
I5
tp1816
F3.4867844010000018
s(L4838729238133333779126784L
I5
tp1817
F4.304672100000002
s(L24180140282346198295120384L
I5
tp1818
F1.5009463529699922
s(L24180877863940342105245184L
I2
tp1819
F10.0
s(L10881808836774271569102400L
I0
tp1820
F1.2157665459056939
s(L11185294706162989373326336L
I6
tp1821
F4.304672100000002
s(L25389096190512137492236864L
I2
tp1822
F4.304672100000002
s(L29014220247282259895256064L
I4
tp1823
F1.2157665459056939
s(L12790972629098926102349440L
I2
tp1824
F1.5009463529699922
s(L2951934078112077448192L
I1
tp1825
F0.0
s(L24178516968868810296656896L
I2
tp1826
F1.5009463529699922
s(L12393260921427758361347584L
I4
tp1827
F10.0
s(L6046105486284542673683968L
I4
tp1828
F10.0
s(L4838360258123511581114368L
I5
tp1829
F0.5233476330273611
s(L12572489824547496289896064L
I1
tp1830
F8.100000000000001
s(I70403103917632
I0
tp1831
F2.824295364810002
s(L2841159057867234346240L
I2
tp1832
F1.2157665459056939
s(L9672587148537767988822016L
I5
tp1833
F2.2876792454961015
s(L1180952078051046326272L
I5
tp1834
F3.4867844010000018
s(L7709263715798787314157568L
I3
tp1835
F5.314410000000002
s(L4837345759327385980764160L
I3
tp1836
F5.314410000000002
s(L24180877575534018323021824L
I5
tp1837
F0.27812838944369395
s(L9672587148608136733001728L
I3
tp1838
F2.824295364810002
s(L19342813546337988623991808L
I4
tp1839
F4.304672100000002
s(L30641739295257477339678304L
I0
tp1840
F8.100000000000001
s(L11581117644665263862581864L
I4
tp1841
F8.100000000000001
s(L29015695698507411773458432L
I1
tp1842
F8.100000000000001
s(L1181240139063756851200L
I4
tp1843
F2.824295364810002
s(L11336410433614818020164864L
I0
tp1844
F5.314410000000002
s(L19344289429979079905379328L
I1
tp1845
F10.0
s(L12092283930717265144840192L
I5
tp1846
F6.561000000000002
s(L1771337861441966310400L
I0
tp1847
F6.561000000000002
s(L9674358504511711957221376L
I3
tp1848
F5.314410000000002
s(L6046991001996102118752256L
I1
tp1849
F10.0
s(L4835703854989637746425856L
I6
tp1850
F1.2157665459056939
s(L12090734223972974752958800L
I3
tp1851
F8.100000000000001
s(L10881955978354891562158336L
I4
tp1852
F10.0
s(L19345174297075518804068608L
I5
tp1853
F1.5009463529699922
s(L31831849525962544219948432L
I1
tp1854
F8.100000000000001
s(L11335616467124873544861184L
I5
tp1855
F1.8530201888518425
s(L31433695300124723360695936L
I0
tp1856
F4.304672100000002
s(L10883284143884218176375040L
I3
tp1857
F8.100000000000001
s(L4838655234979831663822432L
I1
tp1858
F6.561000000000002
s(L25389803851226070704065024L
I1
tp1859
F10.0
s(L6047452134533969904928768L
I6
tp1860
F0.9847709021836121
s(L31433252622282590924047360L
I3
tp1861
F6.561000000000002
s(L29014220247370182176015872L
I6
tp1862
F8.100000000000001
s(L12564548158950220570625386L
I6
tp1863
F4.304672100000002
s(L7253555396195252645988352L
I1
tp1864
F8.100000000000001
s(L26598729214763303516571904L
I6
tp1865
F2.824295364810002
s(L24180878026034762973448192L
I2
tp1866
F3.4867844010000018
s(L11363962771698996346160704L
I2
tp1867
F6.561000000000002
s(L29014219670751100192949248L
I6
tp1868
F2.4315330918113878
s(L31005435470557425637615204L
I5
tp1869
F8.100000000000001
s(L4838360258215863046376041L
I0
tp1870
F6.561000000000002
s(L25692035246439440748382720L
I0
tp1871
F0.0
s(L19342813113974804289946624L
I3
tp1872
F4.304672100000002
s(L7256506396809954504736768L
I2
tp1873
F6.561000000000002
s(L24178516968753352985804800L
I4
tp1874
F1.3210120637960872
s(L30225083155192764274443940L
I3
tp1875
F10.0
s(L26901440969735938788443488L
I0
tp1876
F2.824295364810002
s(L2656619486958669793792L
I3
tp1877
F8.100000000000001
s(L24180163340732326079628928L
I0
tp1878
F3.4867844010000018
s(L27052567079684753534375269L
I3
tp1879
F10.0
s(I720646332749971456
I3
tp1880
F8.100000000000001
s(L4838064461699951525625856L
I1
tp1881
F4.304672100000002
s(L4836883870219997377724416L
I6
tp1882
F3.4867844010000018
s(I432415932971745280
I3
tp1883
F0.797664430768726
s(L29016581538645248677249024L
I6
tp1884
F4.304672100000002
s(L29015695410277022737629184L
I2
tp1885
F0.42391158275216256
s(L6746372498119216697968294L
I5
tp1886
F5.314410000000002
s(L24181173011669573829658624L
I0
tp1887
F1.8530201888518425
s(L19344731575393693109586256L
I1
tp1888
F0.0
s(L24179697560549992254409216L
I3
tp1889
F0.9847709021836121
s(L27202676300399145246524416L
I6
tp1890
F3.4867844010000018
s(L27278750682033391169440150L
I4
tp1891
F0.0
s(L3025266028088366466304L
I5
tp1892
F4.304672100000002
s(L1598669944053200128336L
I0
tp1893
F5.314410000000002
s(L4837474166030370042021376L
I2
tp1894
F0.0
s(L26598260444226041562006937L
I4
tp1895
F8.100000000000001
s(L24180877575674755811378176L
I3
tp1896
F0.34336838202925174
s(L27277980521464410508626538L
I4
tp1897
F5.314410000000002
s(L7861043770846848878642176L
I2
tp1898
F10.0
s(L19343994281915536514222080L
I0
tp1899
F4.304672100000002
s(L26599172513257741342475584L
I6
tp1900
F0.0
s(L30830671010159217542014336L
I1
tp1901
F0.0
s(L27051190953579189362493760L
I2
tp1902
F3.4867844010000018
s(L30716043176667984791864896L
I6
tp1903
F4.304672100000002
s(L29015400262371817604253184L
I0
tp1904
F1.5009463529699922
s(L9673768316619243081696256L
I2
tp1905
F1.8530201888518425
s(L1595643520705560643840L
I0
tp1906
F2.824295364810002
s(L4835703566794480334930944L
I4
tp1907
F8.100000000000001
s(L9673177444418478267172096L
I0
tp1908
F0.6461081889226681
s(L19342813564264425130559488L
I0
tp1909
F4.304672100000002
s(L11562225854876377558288960L
I6
tp1910
F4.304672100000002
s(L4838360071902513913726336L
I3
tp1911
F10.0
s(L25994931078288720204794368L
I0
tp1912
F3.4867844010000018
s(L4835703278599278216349696L
I6
tp1913
F1.2157665459056939
s(L25389213819914263531095040L
I5
tp1914
F2.824295364810002
s(L27051190953579146412820480L
I3
tp1915
F2.2876792454961015
s(L19342813690294836278591488L
I4
tp1916
F3.809066266993614
s(L7256580850341001610395648L
I5
tp1917
F3.4867844010000018
s(L19344584361733461467201536L
I2
tp1918
F8.100000000000001
s(L6047359864809535838358121L
I6
tp1919
F10.0
s(L19342813113922073364791296L
I2
tp1920
F10.0
s(L7253555350033366119350272L
I2
tp1921
F1.8530201888518425
s(L31435133947046747333459968L
I4
tp1922
F0.0
s(L9672587797126465898678272L
I3
tp1923
F3.4867844010000018
s(L30905527825583499296899072L
I5
tp1924
F0.0
s(L30224805697420369259924032L
I2
tp1925
F8.100000000000001
s(L10882103264059512901864000L
I0
tp1926
F6.561000000000002
s(L6651748339097443380496000L
I5
tp1927
F0.5233476330273611
s(L31737401817980758017442816L
I5
tp1928
F2.824295364810002
s(L4838832595744771999270528L
I3
tp1929
F2.2876792454961015
s(L24179696984054077055435776L
I3
tp1930
F4.304672100000002
s(L7255916479407539090950144L
I4
tp1931
F0.9847709021836121
s(L6755817231084955988461222L
I1
tp1932
F6.561000000000002
s(L1770887571813610555648L
I1
tp1933
F4.304672100000002
s(L12393851194649748577453408L
I4
tp1934
F1.2157665459056939
s(L7256623535459362261277248L
I3
tp1935
F10.0
s(L24180877863764428828180480L
I2
tp1936
F4.304672100000002
s(L4836884590743176641250944L
I5
tp1937
F4.304672100000002
s(L19342813546179648211124224L
I4
tp1938
F2.2876792454961015
s(L31435097260667757640892416L
I3
tp1939
F10.0
s(L11184482292928971188471296L
I6
tp1940
F1.5009463529699922
s(L25843630653483893732149504L
I6
tp1941
F10.0
s(L25689674135185274168412568L
I0
tp1942
F0.0
s(L6543306389975915183053456L
I1
tp1943
F6.561000000000002
s(I17179869184
I2
tp1944
F36.32629340619109
s(L7859494251744092696872528L
I5
tp1945
F0.0
s(L26901330037034709875165440L
I4
tp1946
F3.4867844010000018
s(L4836884590743176650688128L
I1
tp1947
F5.314410000000002
s(L6046589812334091332224000L
I5
tp1948
F8.100000000000001
s(L12580384886917880493376768L
I0
tp1949
F8.100000000000001
s(L12695589991782968557438528L
I5
tp1950
F10.0
s(L26599319971179301004379544L
I6
tp1951
F10.0
s(L7558913474200428497951080L
I1
tp1952
F5.314410000000002
s(L12391490227598662278578176L
I3
tp1953
F4.304672100000002
s(L10880332664859939282356800L
I0
tp1954
F1.8530201888518425
s(L25387442860425593378308096L
I1
tp1955
F6.561000000000002
s(L7256506684969967276787712L
I4
tp1956
F8.100000000000001
s(L27023318571810954048571750L
I1
tp1957
F6.561000000000002
s(L24180287856325189140743680L
I4
tp1958
F10.0
s(L19345635934220497824253504L
I4
tp1959
F3.4867844010000018
s(L10882103264033124613359616L
I6
tp1960
F3.4867844010000018
s(L24178516680663735788898304L
I0
tp1961
F8.100000000000001
s(L19345617019074008139695104L
I3
tp1962
F0.9847709021836121
s(L6727011461368087675144192L
I4
tp1963
F6.561000000000002
s(I288230397635987968
I2
tp1964
F1.8530201888518425
s(L19344584001265177271993344L
I5
tp1965
F0.797664430768726
s(L26599098438015864505633024L
I3
tp1966
F2.824295364810002
s(L4837179666615504848816128L
I4
tp1967
F6.561000000000002
s(L27353718222844218442163605L
I1
tp1968
F6.561000000000002
s(L2952127666918367690752L
I4
tp1969
F1.5009463529699922
s(L7253555368047737785286656L
I4
tp1970
F1.8530201888518425
s(L4838655213616595618236672L
I6
tp1971
F2.2876792454961015
s(L27277865121217667457943936L
I0
tp1972
F3.4867844010000018
s(L7253555368188502117187584L
I4
tp1973
F2.2876792454961015
s(L26111618250452695962458470L
I2
tp1974
F8.100000000000001
s(L9673325762688784374694912L
I4
tp1975
F8.100000000000001
s(L24178516392292583494125568L
I0
tp1976
F1.262899291627306
s(L26599412501009826351940864L
I6
tp1977
F10.0
s(L1180591787860368034048L
I0
tp1978
F8.100000000000001
s(L27315759453327781598071402L
I6
tp1979
F10.0
s(L12090439184083793546838016L
I5
tp1980
F4.304672100000002
s(L4835703278621283074442880L
I3
tp1981
F0.5233476330273611
s(L24179697704489275648638976L
I4
tp1982
F1.8530201888518425
s(L27202307257491753134524672L
I6
tp1983
F2.824295364810002
s(L11581117626650865353099872L
I6
tp1984
F6.561000000000002
s(L12542605955054923331666944L
I0
tp1985
F6.561000000000002
s(L26995408377812538808961446L
I1
tp1986
F0.0
s(L11484795646626947349348352L
I4
tp1987
F6.530176545905697
s(L6044629530418753060473088L
I1
tp1988
F5.314410000000002
s(L7253555206010555283277408L
I1
tp1989
F8.100000000000001
s(L6044629530528661272266752L
I3
tp1990
F1.5009463529699922
s(L19342813113834101155038208L
I2
tp1991
F6.676170837848883
s(L29014219670751138852898816L
I6
tp1992
F4.304672100000002
s(L11680305792168923351066008L
I4
tp1993
F10.0
s(L24181348440554719725225574L
I1
tp1994
F8.100000000000001
s(L32037715500573499923367936L
I6
tp1995
F0.0
s(L4838802619781254173689344L
I3
tp1996
F1.2157665459056939
s(L12092080836290336762628736L
I5
tp1997
F5.314410000000002
s(L1918893817190959547392L
I3
tp1998
F1.2157665459056939
s(L12391489651049988769186816L
I6
tp1999
F1.5009463529699922
s(L10882214232773005827638656L
I3
tp2000
F1.5009463529699922
s(L19342813546294014598186240L
I1
tp2001
F6.561000000000002
s(L1623745938417063922048L
I2
tp2002
F10.0
s(L29015990990527763092343296L
I4
tp2003
F0.0
s(L9671406845217812653278208L
I3
tp2004
F1.8530201888518425
s(L9674460213707564608652896L
I1
tp2005
F10.0
s(L9671406845235370479585280L
I3
tp2006
F4.304672100000002
s(L6543306390011099555142292L
I0
tp2007
F8.100000000000001
s(L30978724585138693938439780L
I6
tp2008
F4.304672100000002
s(L29015696058900930780725248L
I1
tp2009
F3.4867844010000018
s(L4838064461770354625348608L
I6
tp2010
F2.824295364810002
s(L4838802619763661987644416L
I0
tp2011
F0.9847709021836121
s(L27019389221668429607471488L
I0
tp2012
F8.100000000000001
s(L27278750447826422675278432L
I5
tp2013
F0.0
s(L26597918278670370492491776L
I6
tp2014
F5.314410000000002
s(L4836884518597614819608128L
I4
tp2015
F0.0
s(I576460769487486976
I1
tp2016
F5.314410000000002
s(L1180591620717420740608L
I1
tp2017
F2.2876792454961015
s(L9671406845235404848758784L
I3
tp2018
F1.8530201888518425
s(L12090734368088162828814676L
I0
tp2019
F10.0
s(L10882103264059512901863424L
I1
tp2020
F5.314410000000002
s(L9671407277563366147621888L
I0
tp2021
F10.0
s(L4838064461699968701300736L
I6
tp2022
F1.8530201888518425
s(L26106895883969816116697446L
I6
tp2023
F5.314410000000002
s(L31432071742413909479981056L
I4
tp2024
F0.0
s(L25389803971750137289768960L
I5
tp2025
F1.8530201888518425
s(L29014220128264502769616480L
I3
tp2026
F1.2157665459056939
s(L7861069152575500479104656L
I1
tp2027
F10.0
s(L24180878026034759619576832L
I1
tp2028
F5.314410000000002
s(L26598015124076773578704512L
I4
tp2029
F5.314410000000002
s(L27052567079682554511115621L
I6
tp2030
F8.100000000000001
s(L27203856891992373052639840L
I6
tp2031
F8.100000000000001
s(L4837326952365736587168400L
I0
tp2032
F3.4867844010000018
s(L12695270992908162305624320L
I0
tp2033
F4.304672100000002
s(L12091914815593673376664192L
I1
tp2034
F4.304672100000002
s(I432345581416873984
I2
tp2035
F3.4867844010000018
s(L32039264914441741852214848L
I4
tp2036
F8.100000000000001
s(I70368750733312
I1
tp2037
F2.824295364810002
s(L7752355345983769846024192L
I1
tp2038
F10.0
s(L6724650520221478155717184L
I0
tp2039
F4.304672100000002
s(L10880332664762038724067328L
I6
tp2040
F5.2894430021836145
s(L2841159055667137348864L
I3
tp2041
F0.9847709021836121
s(L19343994281985933177364480L
I1
tp2042
F2.824295364810002
s(L31737439143816970418783488L
I5
tp2043
F10.0
s(L19342813113834088280621056L
I1
tp2044
F2.2876792454961015
s(L27277865265332855533799824L
I4
tp2045
F4.304672100000002
s(L10880332664942375817708928L
I3
tp2046
F4.304672100000002
s(L6044629386409109509636096L
I6
tp2047
F5.314410000000002
s(L19343993705595560349663232L
I3
tp2048
F3.4867844010000018
s(L4836884158309653211512832L
I6
tp2049
F5.314410000000002
s(L19344289429961453351206912L
I4
tp2050
F6.561000000000002
s(L7555786372749787790313472L
I6
tp2051
F1.8530201888518425
s(L11486345533557880994661976L
I5
tp2052
F1.8530201888518425
s(L27353423157118325124105832L
I0
tp2053
F8.100000000000001
s(L31434727641197380122969088L
I6
tp2054
F4.304672100000002
s(L12092090149734366701816464L
I0
tp2055
F10.0
s(L29015400723034848544949248L
I1
tp2056
F2.824295364810002
s(L24181615445296983884431360L
I1
tp2057
F8.100000000000001
s(L7558147844230395931396096L
I4
tp2058
F2.824295364810002
s(L6349664458216744514289664L
I1
tp2059
F1.8530201888518425
s(L31434820334320095038015104L
I4
tp2060
F5.314410000000002
s(L29015842984317590517582400L
I2
tp2061
F5.314410000000002
s(L12695372766284455829964448L
I2
tp2062
F0.0
s(L25993778213941142991996160L
I2
tp2063
F10.0
s(I70394513981440
I3
tp2064
F1.7391141789330549
s(L2361831847759282439680L
I4
tp2065
F1.2157665459056939
s(L30829545308412950833699072L
I6
tp2066
F0.0
s(L29016580854098105315885056L
I3
tp2067
F0.0
s(L6044629098073145881919488L
I6
tp2068
F5.314410000000002
s(L27202307401518997464024640L
I1
tp2069
F3.4867844010000018
s(L19342813690294819098723328L
I4
tp2070
F5.5204386459056956
s(L2361471471828154187776L
I2
tp2071
F1.2157665459056939
s(I140761379110912
I2
tp2072
F0.797664430768726
s(L19343993705621927163332992L
I0
tp2073
F0.0
s(L30224743871916706177112320L
I4
tp2074
F2.2876792454961015
s(L25994267043711874712470912L
I0
tp2075
F6.561000000000002
s(L9671406556917050586956800L
I1
tp2076
F1.5009463529699922
s(L29014219959095842742208064L
I1
tp2077
F0.5233476330273611
s(L12770902643551571542018624L
I0
tp2078
F3.4867844010000018
s(L4836884158450347758583808L
I4
tp2079
F3.4867844010000018
s(L12770939537049889443678784L
I3
tp2080
F5.314410000000002
s(L25390283471128407791634688L
I5
tp2081
F8.100000000000001
s(L24180103574627110620891520L
I5
tp2082
F3.4867844010000018
s(L7255916677572505151474068L
I0
tp2083
F4.304672100000002
s(L12770459957617022457612544L
I6
tp2084
F6.561000000000002
s(L4838065110218297868550144L
I4
tp2085
F0.42391158275216256
s(L19342813113834083975170048L
I0
tp2086
F0.9847709021836121
s(L29016581538649646724284416L
I1
tp2087
F5.314410000000002
s(L29015400721908948636009472L
I4
tp2088
F2.2876792454961015
s(L29014219670821503296865280L
I6
tp2089
F0.9847709021836121
s(L19344289429961487710946304L
I2
tp2090
F8.100000000000001
s(L27203856884680914600199168L
I4
tp2091
F0.0
s(L12090734404187304436843840L
I0
tp2092
F8.100000000000001
s(L2361638245773336749056L
I4
tp2093
F2.824295364810002
s(L29014220121225429328594528L
I0
tp2094
F0.797664430768726
s(I70368744177664
I3
tp2095
F37.18752881831277
s(L12091177112490318076576768L
I4
tp2096
F4.304672100000002
s(L4838360069077867468162048L
I5
tp2097
F4.304672100000002
s(L10881931046475715772483920L
I6
tp2098
F6.561000000000002
s(L7254736085769285037720576L
I1
tp2099
F1.2157665459056939
s(L30999975234311607341901412L
I5
tp2100
F5.314410000000002
s(L24180158152515178014443008L
I0
tp2101
F1.8530201888518425
s(L26107972756142985629138944L
I6
tp2102
F3.4867844010000018
s(L25387442860425601969291264L
I2
tp2103
F8.100000000000001
s(L29016138876522853317477376L
I2
tp2104
F0.0
s(L24181579236443949350520064L
I5
tp2105
F5.314410000000002
s(L9671407007276996139943936L
I1
tp2106
F1.2157665459056939
s(L9672587554042080134169856L
I0
tp2107
F6.561000000000002
s(L12770755069563797426407936L
I4
tp2108
F2.2876792454961015
s(L31737254244023770294518784L
I5
tp2109
F2.2876792454961015
s(L4836883870079268469866496L
I5
tp2110
F0.5233476330273611
s(I105578895769600
I1
tp2111
F4.304672100000002
s(L32113863377552899752593044L
I5
tp2112
F0.0
s(L9672587545034880879428608L
I5
tp2113
F5.314410000000002
s(I288300779255627776
I3
tp2114
F4.13289258992267
s(L4835703638746486896855040L
I4
tp2115
F4.304672100000002
s(L4838655218115975859668376L
I4
tp2116
F0.0
s(L9673767740158468225500160L
I1
tp2117
F0.34336838202925174
s(L11680305769650925214205328L
I3
tp2118
F6.561000000000002
s(I648685493588855446
I2
tp2119
F10.0
s(L3044001099312430844512L
I5
tp2120
F3.4867844010000018
s(L12790972629098926102382224L
I0
tp2121
F1.8530201888518425
s(L29014220127980828769650272L
I4
tp2122
F0.9847709021836121
s(L9672587436768126966958336L
I0
tp2123
F2.824295364810002
s(I288230376151711744
I4
tp2124
F43.88667624681061
s(L6046990281384994544092672L
I1
tp2125
F0.0
s(L24180878224052386139212288L
I0
tp2126
F1.8530201888518425
s(L32038121000230513959045526L
I0
tp2127
F0.0
s(L31434903263568433497115264L
I2
tp2128
F0.0
s(L27315644197195813769251216L
I6
tp2129
F5.314410000000002
s(L30603739290625654346745088L
I2
tp2130
F0.0
s(L25995004571151147875256832L
I6
tp2131
F10.0
s(L11487858094465944037359616L
I4
tp2132
F8.100000000000001
s(L19344584433610748220409216L
I0
tp2133
F2.2876792454961015
s(L26598139495413713223288208L
I2
tp2134
F1.2157665459056939
s(L24179697560444467055429632L
I2
tp2135
F8.100000000000001
s(L29015695410277035621222400L
I0
tp2136
F6.561000000000002
s(L26901551397932808055817728L
I5
tp2137
F10.0
s(L4835703755840094389665792L
I6
tp2138
F5.314410000000002
s(L27093858968322266356876864L
I1
tp2139
F0.0
s(L9673768028494418973884416L
I1
tp2140
F1.8530201888518425
s(L29016876001968121773555712L
I6
tp2141
F3.4867844010000018
s(L11486658767778392014064128L
I5
tp2142
F2.2876792454961015
s(L12089258484464654608236544L
I1
tp2143
F6.561000000000002
s(L11665795477956514689320536L
I4
tp2144
F3.4867844010000018
s(L30225083155190565250795168L
I4
tp2145
F6.561000000000002
s(L9672882872974051213575808L
I5
tp2146
F3.4867844010000018
s(L7933576267794181331617792L
I3
tp2147
F3.4867844010000018
s(L31005472364045573056718437L
I5
tp2148
F10.0
s(L19345765047912179006964736L
I2
tp2149
F10.0
s(L1181168222224389243904L
I5
tp2150
F2.2876792454961015
s(L4837179018125176731076096L
I5
tp2151
F5.314410000000002
s(L7657317630461341658876326L
I6
tp2152
F10.0
s(L1475739666677206352896L
I5
tp2153
F0.797664430768726
s(L2841159058142655415552L
I3
tp2154
F1.8530201888518425
s(L30226097257718293561608448L
I2
tp2155
F0.0
s(L6045810122180165009145856L
I6
tp2156
F4.304672100000002
s(L6046252862097429704476672L
I3
tp2157
F10.0
s(L4838359609605130882647040L
I5
tp2158
F3.4867844010000018
s(L30225507130792921966839808L
I4
tp2159
F8.100000000000001
s(L19343994281915564433080320L
I1
tp2160
F1.8530201888518425
s(L11298926181423410544445024L
I1
tp2161
F0.0
s(L7934756283006686769186448L
I6
tp2162
F0.9847709021836121
s(I17188258816
I0
tp2163
F1.2157665459056939
s(L19342813402205180441658880L
I0
tp2164
F5.314410000000002
s(L12694901985804699901625344L
I4
tp2165
F1.2157665459056939
s(L4837179594612336903586816L
I2
tp2166
F1.5009463529699922
s(L32038895835555009272218624L
I4
tp2167
F0.0
s(L24181468519933115736525376L
I2
tp2168
F2.824295364810002
s(L27353838144711504180544768L
I6
tp2169
F8.100000000000001
s(L4838064461811579340458304L
I6
tp2170
F3.4867844010000018
s(L10882693848003490726545664L
I6
tp2171
F6.561000000000002
s(L12489036412128481719616912L
I2
tp2172
F0.0
s(L24178516824778910986144153L
I2
tp2173
F6.561000000000002
s.